

Microchip MPLAB XC8 Assembler V2.40 build 20220703182018 
                                                                                               Sun Apr 09 20:41:29 2023

Microchip MPLAB XC8 C Compiler v2.40 (Free license) build 20220703182018 Og1 
     1                           	processor	16F887
     2                           	pagewidth 120
     3                           	opt	flic
     4                           	psect	idataBANK1,global,class=CODE,delta=2,noexec
     5                           	psect	cinit,global,class=CODE,merge=1,delta=2
     6                           	psect	bssBANK1,global,class=BANK1,space=1,delta=1,noexec
     7                           	psect	dataBANK1,global,class=BANK1,space=1,delta=1,noexec
     8                           	psect	cstackBANK1,global,class=BANK1,space=1,delta=1,noexec
     9                           	psect	cstackCOMMON,global,class=COMMON,space=1,delta=1,noexec
    10                           	psect	cstackBANK0,global,class=BANK0,space=1,delta=1,noexec
    11                           	psect	maintext,global,class=CODE,split=1,delta=2
    12                           	psect	text1,local,class=CODE,merge=1,delta=2
    13                           	psect	text2,local,class=CODE,merge=1,delta=2
    14                           	psect	text3,local,class=CODE,merge=1,delta=2
    15                           	psect	text4,local,class=CODE,merge=1,delta=2
    16                           	psect	text5,local,class=CODE,merge=1,delta=2
    17                           	psect	text6,local,class=CODE,merge=1,delta=2
    18                           	psect	text7,local,class=CODE,merge=1,delta=2
    19                           	psect	text8,local,class=CODE,merge=1,delta=2
    20                           	psect	intentry,global,class=CODE,delta=2
    21                           	psect	text9,local,class=CODE,merge=1,delta=2
    22                           	psect	text10,local,class=CODE,merge=1,delta=2,group=1
    23                           	psect	text11,local,class=CODE,merge=1,delta=2,group=1
    24                           	psect	text12,local,class=CODE,merge=1,delta=2,group=1
    25                           	psect	text13,local,class=CODE,merge=1,delta=2,group=1
    26                           	psect	text14,local,class=CODE,merge=1,delta=2,group=1
    27                           	psect	text15,local,class=CODE,merge=1,delta=2,group=1
    28                           	psect	text16,local,class=CODE,merge=1,delta=2
    29                           	psect	idloc,global,abs,ovrld,class=IDLOC,space=5,delta=2,noexec
    30                           	psect	config,global,abs,ovrld,class=CONFIG,space=4,delta=2,noexec
    31                           	dabs	1,0x7E,2
    32     0000                     
    33                           ; Version 2.40
    34                           ; Generated 17/11/2021 GMT
    35                           ; 
    36                           ; Copyright © 2021, Microchip Technology Inc. and its subsidiaries ("Microchip")
    37                           ; All rights reserved.
    38                           ; 
    39                           ; This software is developed by Microchip Technology Inc. and its subsidiaries ("Microch
      +                          ip").
    40                           ; 
    41                           ; Redistribution and use in source and binary forms, with or without modification, are
    42                           ; permitted provided that the following conditions are met:
    43                           ; 
    44                           ;     1. Redistributions of source code must retain the above copyright notice, this lis
      +                          t of
    45                           ;        conditions and the following disclaimer.
    46                           ; 
    47                           ;     2. Redistributions in binary form must reproduce the above copyright notice, this 
      +                          list
    48                           ;        of conditions and the following disclaimer in the documentation and/or other
    49                           ;        materials provided with the distribution. Publication is not required when
    50                           ;        this file is used in an embedded application.
    51                           ; 
    52                           ;     3. Microchip's name may not be used to endorse or promote products derived from th
      +                          is
    53                           ;        software without specific prior written permission.
    54                           ; 
    55                           ; THIS SOFTWARE IS PROVIDED BY MICROCHIP "AS IS" AND ANY EXPRESS OR IMPLIED WARRANTIES,
    56                           ; INCLUDING, BUT NOT LIMITED TO, THE IMPLIED WARRANTIES OF MERCHANTABILITY AND FITNESS F
      +                          OR
    57                           ; PURPOSE ARE DISCLAIMED.  IN NO EVENT SHALL MICROCHIP BE LIABLE FOR ANY DIRECT, INDIREC
      +                          T,
    58                           ; INCIDENTAL, SPECIAL, EXEMPLARY, OR CONSEQUENTIAL DAMAGES (INCLUDING BUT NOT LIMITED TO
    59                           ; PROCUREMENT OF SUBSTITUTE GOODS OR SERVICES; LOSS OF USE, DATA OR PROFITS; OR BUSINESS
    60                           ; INTERRUPTION) HOWSOEVER CAUSED AND ON ANY THEORY OF LIABILITY, WHETHER IN CONTRACT, ST
      +                          RICT
    61                           ; LIABILITY, OR TORT (INCLUDING NEGLIGENCE OR OTHERWISE) ARISING IN ANY WAY OUT OF THE U
      +                          SE OF
    62                           ; THIS SOFTWARE, EVEN IF ADVISED OF THE POSSIBILITY OF SUCH DAMAGE.
    63                           ; 
    64                           ; 
    65                           ; Code-generator required, PIC16F887 Definitions
    66                           ; 
    67                           ; SFR Addresses
    68     0000                     	;# 
    69     0001                     	;# 
    70     0002                     	;# 
    71     0003                     	;# 
    72     0004                     	;# 
    73     0005                     	;# 
    74     0006                     	;# 
    75     0007                     	;# 
    76     0008                     	;# 
    77     0009                     	;# 
    78     000A                     	;# 
    79     000B                     	;# 
    80     000C                     	;# 
    81     000D                     	;# 
    82     000E                     	;# 
    83     000E                     	;# 
    84     000F                     	;# 
    85     0010                     	;# 
    86     0011                     	;# 
    87     0012                     	;# 
    88     0013                     	;# 
    89     0014                     	;# 
    90     0015                     	;# 
    91     0015                     	;# 
    92     0016                     	;# 
    93     0017                     	;# 
    94     0018                     	;# 
    95     0019                     	;# 
    96     001A                     	;# 
    97     001B                     	;# 
    98     001B                     	;# 
    99     001C                     	;# 
   100     001D                     	;# 
   101     001E                     	;# 
   102     001F                     	;# 
   103     0081                     	;# 
   104     0085                     	;# 
   105     0086                     	;# 
   106     0087                     	;# 
   107     0088                     	;# 
   108     0089                     	;# 
   109     008C                     	;# 
   110     008D                     	;# 
   111     008E                     	;# 
   112     008F                     	;# 
   113     0090                     	;# 
   114     0091                     	;# 
   115     0092                     	;# 
   116     0093                     	;# 
   117     0093                     	;# 
   118     0093                     	;# 
   119     0094                     	;# 
   120     0095                     	;# 
   121     0096                     	;# 
   122     0097                     	;# 
   123     0098                     	;# 
   124     0099                     	;# 
   125     009A                     	;# 
   126     009B                     	;# 
   127     009C                     	;# 
   128     009D                     	;# 
   129     009E                     	;# 
   130     009F                     	;# 
   131     0105                     	;# 
   132     0107                     	;# 
   133     0108                     	;# 
   134     0109                     	;# 
   135     010C                     	;# 
   136     010C                     	;# 
   137     010D                     	;# 
   138     010E                     	;# 
   139     010F                     	;# 
   140     0185                     	;# 
   141     0187                     	;# 
   142     0188                     	;# 
   143     0189                     	;# 
   144     018C                     	;# 
   145     018D                     	;# 
   146     0000                     	;# 
   147     0001                     	;# 
   148     0002                     	;# 
   149     0003                     	;# 
   150     0004                     	;# 
   151     0005                     	;# 
   152     0006                     	;# 
   153     0007                     	;# 
   154     0008                     	;# 
   155     0009                     	;# 
   156     000A                     	;# 
   157     000B                     	;# 
   158     000C                     	;# 
   159     000D                     	;# 
   160     000E                     	;# 
   161     000E                     	;# 
   162     000F                     	;# 
   163     0010                     	;# 
   164     0011                     	;# 
   165     0012                     	;# 
   166     0013                     	;# 
   167     0014                     	;# 
   168     0015                     	;# 
   169     0015                     	;# 
   170     0016                     	;# 
   171     0017                     	;# 
   172     0018                     	;# 
   173     0019                     	;# 
   174     001A                     	;# 
   175     001B                     	;# 
   176     001B                     	;# 
   177     001C                     	;# 
   178     001D                     	;# 
   179     001E                     	;# 
   180     001F                     	;# 
   181     0081                     	;# 
   182     0085                     	;# 
   183     0086                     	;# 
   184     0087                     	;# 
   185     0088                     	;# 
   186     0089                     	;# 
   187     008C                     	;# 
   188     008D                     	;# 
   189     008E                     	;# 
   190     008F                     	;# 
   191     0090                     	;# 
   192     0091                     	;# 
   193     0092                     	;# 
   194     0093                     	;# 
   195     0093                     	;# 
   196     0093                     	;# 
   197     0094                     	;# 
   198     0095                     	;# 
   199     0096                     	;# 
   200     0097                     	;# 
   201     0098                     	;# 
   202     0099                     	;# 
   203     009A                     	;# 
   204     009B                     	;# 
   205     009C                     	;# 
   206     009D                     	;# 
   207     009E                     	;# 
   208     009F                     	;# 
   209     0105                     	;# 
   210     0107                     	;# 
   211     0108                     	;# 
   212     0109                     	;# 
   213     010C                     	;# 
   214     010C                     	;# 
   215     010D                     	;# 
   216     010E                     	;# 
   217     010F                     	;# 
   218     0185                     	;# 
   219     0187                     	;# 
   220     0188                     	;# 
   221     0189                     	;# 
   222     018C                     	;# 
   223     018D                     	;# 
   224     0000                     	;# 
   225     0001                     	;# 
   226     0002                     	;# 
   227     0003                     	;# 
   228     0004                     	;# 
   229     0005                     	;# 
   230     0006                     	;# 
   231     0007                     	;# 
   232     0008                     	;# 
   233     0009                     	;# 
   234     000A                     	;# 
   235     000B                     	;# 
   236     000C                     	;# 
   237     000D                     	;# 
   238     000E                     	;# 
   239     000E                     	;# 
   240     000F                     	;# 
   241     0010                     	;# 
   242     0011                     	;# 
   243     0012                     	;# 
   244     0013                     	;# 
   245     0014                     	;# 
   246     0015                     	;# 
   247     0015                     	;# 
   248     0016                     	;# 
   249     0017                     	;# 
   250     0018                     	;# 
   251     0019                     	;# 
   252     001A                     	;# 
   253     001B                     	;# 
   254     001B                     	;# 
   255     001C                     	;# 
   256     001D                     	;# 
   257     001E                     	;# 
   258     001F                     	;# 
   259     0081                     	;# 
   260     0085                     	;# 
   261     0086                     	;# 
   262     0087                     	;# 
   263     0088                     	;# 
   264     0089                     	;# 
   265     008C                     	;# 
   266     008D                     	;# 
   267     008E                     	;# 
   268     008F                     	;# 
   269     0090                     	;# 
   270     0091                     	;# 
   271     0092                     	;# 
   272     0093                     	;# 
   273     0093                     	;# 
   274     0093                     	;# 
   275     0094                     	;# 
   276     0095                     	;# 
   277     0096                     	;# 
   278     0097                     	;# 
   279     0098                     	;# 
   280     0099                     	;# 
   281     009A                     	;# 
   282     009B                     	;# 
   283     009C                     	;# 
   284     009D                     	;# 
   285     009E                     	;# 
   286     009F                     	;# 
   287     0105                     	;# 
   288     0107                     	;# 
   289     0108                     	;# 
   290     0109                     	;# 
   291     010C                     	;# 
   292     010C                     	;# 
   293     010D                     	;# 
   294     010E                     	;# 
   295     010F                     	;# 
   296     0185                     	;# 
   297     0187                     	;# 
   298     0188                     	;# 
   299     0189                     	;# 
   300     018C                     	;# 
   301     018D                     	;# 
   302     0000                     	;# 
   303     0001                     	;# 
   304     0002                     	;# 
   305     0003                     	;# 
   306     0004                     	;# 
   307     0005                     	;# 
   308     0006                     	;# 
   309     0007                     	;# 
   310     0008                     	;# 
   311     0009                     	;# 
   312     000A                     	;# 
   313     000B                     	;# 
   314     000C                     	;# 
   315     000D                     	;# 
   316     000E                     	;# 
   317     000E                     	;# 
   318     000F                     	;# 
   319     0010                     	;# 
   320     0011                     	;# 
   321     0012                     	;# 
   322     0013                     	;# 
   323     0014                     	;# 
   324     0015                     	;# 
   325     0015                     	;# 
   326     0016                     	;# 
   327     0017                     	;# 
   328     0018                     	;# 
   329     0019                     	;# 
   330     001A                     	;# 
   331     001B                     	;# 
   332     001B                     	;# 
   333     001C                     	;# 
   334     001D                     	;# 
   335     001E                     	;# 
   336     001F                     	;# 
   337     0081                     	;# 
   338     0085                     	;# 
   339     0086                     	;# 
   340     0087                     	;# 
   341     0088                     	;# 
   342     0089                     	;# 
   343     008C                     	;# 
   344     008D                     	;# 
   345     008E                     	;# 
   346     008F                     	;# 
   347     0090                     	;# 
   348     0091                     	;# 
   349     0092                     	;# 
   350     0093                     	;# 
   351     0093                     	;# 
   352     0093                     	;# 
   353     0094                     	;# 
   354     0095                     	;# 
   355     0096                     	;# 
   356     0097                     	;# 
   357     0098                     	;# 
   358     0099                     	;# 
   359     009A                     	;# 
   360     009B                     	;# 
   361     009C                     	;# 
   362     009D                     	;# 
   363     009E                     	;# 
   364     009F                     	;# 
   365     0105                     	;# 
   366     0107                     	;# 
   367     0108                     	;# 
   368     0109                     	;# 
   369     010C                     	;# 
   370     010C                     	;# 
   371     010D                     	;# 
   372     010E                     	;# 
   373     010F                     	;# 
   374     0185                     	;# 
   375     0187                     	;# 
   376     0188                     	;# 
   377     0189                     	;# 
   378     018C                     	;# 
   379     018D                     	;# 
   380     0000                     	;# 
   381     0001                     	;# 
   382     0002                     	;# 
   383     0003                     	;# 
   384     0004                     	;# 
   385     0005                     	;# 
   386     0006                     	;# 
   387     0007                     	;# 
   388     0008                     	;# 
   389     0009                     	;# 
   390     000A                     	;# 
   391     000B                     	;# 
   392     000C                     	;# 
   393     000D                     	;# 
   394     000E                     	;# 
   395     000E                     	;# 
   396     000F                     	;# 
   397     0010                     	;# 
   398     0011                     	;# 
   399     0012                     	;# 
   400     0013                     	;# 
   401     0014                     	;# 
   402     0015                     	;# 
   403     0015                     	;# 
   404     0016                     	;# 
   405     0017                     	;# 
   406     0018                     	;# 
   407     0019                     	;# 
   408     001A                     	;# 
   409     001B                     	;# 
   410     001B                     	;# 
   411     001C                     	;# 
   412     001D                     	;# 
   413     001E                     	;# 
   414     001F                     	;# 
   415     0081                     	;# 
   416     0085                     	;# 
   417     0086                     	;# 
   418     0087                     	;# 
   419     0088                     	;# 
   420     0089                     	;# 
   421     008C                     	;# 
   422     008D                     	;# 
   423     008E                     	;# 
   424     008F                     	;# 
   425     0090                     	;# 
   426     0091                     	;# 
   427     0092                     	;# 
   428     0093                     	;# 
   429     0093                     	;# 
   430     0093                     	;# 
   431     0094                     	;# 
   432     0095                     	;# 
   433     0096                     	;# 
   434     0097                     	;# 
   435     0098                     	;# 
   436     0099                     	;# 
   437     009A                     	;# 
   438     009B                     	;# 
   439     009C                     	;# 
   440     009D                     	;# 
   441     009E                     	;# 
   442     009F                     	;# 
   443     0105                     	;# 
   444     0107                     	;# 
   445     0108                     	;# 
   446     0109                     	;# 
   447     010C                     	;# 
   448     010C                     	;# 
   449     010D                     	;# 
   450     010E                     	;# 
   451     010F                     	;# 
   452     0185                     	;# 
   453     0187                     	;# 
   454     0188                     	;# 
   455     0189                     	;# 
   456     018C                     	;# 
   457     018D                     	;# 
   458                           
   459                           	psect	idataBANK1
   460     07F9                     __pidataBANK1:
   461                           
   462                           ;initializer for _TMR0_Pre
   463     07F9  34FA               	retlw	250
   464     001F                     _ADCON0	set	31
   465     001B                     _CCPR2L	set	27
   466     0015                     _CCPR1L	set	21
   467     0012                     _T2CONbits	set	18
   468     000C                     _PIR1bits	set	12
   469     001D                     _CCP2CONbits	set	29
   470     0017                     _CCP1CONbits	set	23
   471     001D                     _CCP2CON	set	29
   472     0017                     _CCP1CON	set	23
   473     001F                     _ADCON0bits	set	31
   474     0008                     _PORTD	set	8
   475     0007                     _PORTC	set	7
   476     0006                     _PORTB	set	6
   477     0005                     _PORTA	set	5
   478     0001                     _TMR0	set	1
   479     0007                     _PORTCbits	set	7
   480     001E                     _ADRESH	set	30
   481     005F                     _GIE	set	95
   482     005E                     _PEIE	set	94
   483     005D                     _T0IE	set	93
   484     005A                     _T0IF	set	90
   485     0066                     _ADIF	set	102
   486     009F                     _ADCON1bits	set	159
   487     0092                     _PR2	set	146
   488     0081                     _OPTION_REGbits	set	129
   489     0088                     _TRISD	set	136
   490     0087                     _TRISC	set	135
   491     0086                     _TRISB	set	134
   492     0085                     _TRISA	set	133
   493     0466                     _ADIE	set	1126
   494     0189                     _ANSELH	set	393
   495     0188                     _ANSEL	set	392
   496                           
   497                           	psect	cinit
   498     0013                     start_initialization:	
   499                           ; #config settings
   500                           
   501     0013                     __initialization:
   502                           
   503                           ; Initialize objects allocated to BANK1
   504     0013  1683               	bsf	3,5	;RP0=1, select bank1
   505     0014  1303               	bcf	3,6	;RP1=0, select bank1
   506     0015  120A  118A  27F9  120A  118A  	fcall	__pidataBANK1	;fetch initializer
   507     001A  00BF               	movwf	__pdataBANK1& (0+127)
   508                           
   509                           ; Clear objects allocated to BANK1
   510     001B  01B3               	clrf	__pbssBANK1& (0+127)
   511     001C  01B4               	clrf	(__pbssBANK1+1)& (0+127)
   512     001D  01B5               	clrf	(__pbssBANK1+2)& (0+127)
   513     001E  01B6               	clrf	(__pbssBANK1+3)& (0+127)
   514     001F  01B7               	clrf	(__pbssBANK1+4)& (0+127)
   515     0020  01B8               	clrf	(__pbssBANK1+5)& (0+127)
   516     0021  01B9               	clrf	(__pbssBANK1+6)& (0+127)
   517     0022  01BA               	clrf	(__pbssBANK1+7)& (0+127)
   518     0023  01BB               	clrf	(__pbssBANK1+8)& (0+127)
   519     0024  01BC               	clrf	(__pbssBANK1+9)& (0+127)
   520     0025  01BD               	clrf	(__pbssBANK1+10)& (0+127)
   521     0026  01BE               	clrf	(__pbssBANK1+11)& (0+127)
   522     0027                     end_of_initialization:	
   523                           ;End of C runtime variable initialization code
   524                           
   525     0027                     __end_of__initialization:
   526     0027  0183               	clrf	3
   527     0028  120A  158A  2C39   	ljmp	_main	;jump to C main() function
   528                           
   529                           	psect	bssBANK1
   530     00B3                     __pbssBANK1:
   531     00B3                     _Servo2_Val:
   532     00B3                     	ds	2
   533     00B5                     _Servo1_Val:
   534     00B5                     	ds	2
   535     00B7                     _ADC3:
   536     00B7                     	ds	2
   537     00B9                     _ADC2:
   538     00B9                     	ds	2
   539     00BB                     _ADC1:
   540     00BB                     	ds	2
   541     00BD                     _Contador_PWM:
   542     00BD                     	ds	1
   543     00BE                     _Bandera_ADC:
   544     00BE                     	ds	1
   545                           
   546                           	psect	dataBANK1
   547     00BF                     __pdataBANK1:
   548     00BF                     _TMR0_Pre:
   549     00BF                     	ds	1
   550                           
   551                           	psect	cstackBANK1
   552     00A0                     __pcstackBANK1:
   553     00A0                     ___fltol@sign1:
   554                           
   555                           ; 1 bytes @ 0x0
   556     00A0                     	ds	1
   557     00A1                     ___fltol@exp1:
   558                           
   559                           ; 1 bytes @ 0x1
   560     00A1                     	ds	1
   561     00A2                     ?_map:
   562     00A2                     map@x0:	
   563                           ; 2 bytes @ 0x2
   564                           
   565                           
   566                           ; 1 bytes @ 0x2
   567     00A2                     	ds	1
   568     00A3                     map@x1:
   569                           
   570                           ; 1 bytes @ 0x3
   571     00A3                     	ds	1
   572     00A4                     map@y0:
   573                           
   574                           ; 2 bytes @ 0x4
   575     00A4                     	ds	2
   576     00A6                     map@y1:
   577                           
   578                           ; 2 bytes @ 0x6
   579     00A6                     	ds	2
   580     00A8                     map@x:
   581                           
   582                           ; 1 bytes @ 0x8
   583     00A8                     	ds	1
   584     00A9                     ??_isr:
   585                           
   586                           ; 1 bytes @ 0x9
   587     00A9                     	ds	5
   588     00AE                     ?_ADC_Select:
   589     00AE                     ?_PWM_config:	
   590                           ; 1 bytes @ 0xE
   591                           
   592     00AE                     ??_ADC_Int:	
   593                           ; 1 bytes @ 0xE
   594                           
   595     00AE                     ??_Setup:	
   596                           ; 1 bytes @ 0xE
   597                           
   598     00AE                     ??_Int_Enable:	
   599                           ; 1 bytes @ 0xE
   600                           
   601     00AE                     ??_TMR0_Config:	
   602                           ; 1 bytes @ 0xE
   603                           
   604     00AE                     ADC_Int@ADFM_Select:	
   605                           ; 1 bytes @ 0xE
   606                           
   607     00AE                     PWM_config@periodo:	
   608                           ; 1 bytes @ 0xE
   609                           
   610     00AE                     ADC_Select@channel:	
   611                           ; 2 bytes @ 0xE
   612                           
   613                           
   614                           ; 2 bytes @ 0xE
   615     00AE                     	ds	2
   616     00B0                     ??_ADC_Select:
   617     00B0                     ??_PWM_config:	
   618                           ; 1 bytes @ 0x10
   619                           
   620     00B0                     PWM_config@canal:	
   621                           ; 1 bytes @ 0x10
   622                           
   623                           
   624                           ; 1 bytes @ 0x10
   625     00B0                     	ds	3
   626     00B3                     ??_ADC_Change:
   627     00B3                     ??_main:	
   628                           ; 1 bytes @ 0x13
   629                           
   630                           
   631                           	psect	cstackCOMMON
   632     0070                     __pcstackCOMMON:	
   633                           ; 1 bytes @ 0x13
   634                           
   635     0070                     ?_PWM_duty:
   636     0070                     ?_ADC_Int:	
   637                           ; 1 bytes @ 0x0
   638                           
   639     0070                     ?_isr:	
   640                           ; 1 bytes @ 0x0
   641                           
   642     0070                     ?_Setup:	
   643                           ; 1 bytes @ 0x0
   644                           
   645     0070                     ?_Int_Enable:	
   646                           ; 1 bytes @ 0x0
   647                           
   648     0070                     ?_TMR0_Config:	
   649                           ; 1 bytes @ 0x0
   650                           
   651     0070                     ?_ADC_Change:	
   652                           ; 1 bytes @ 0x0
   653                           
   654     0070                     ?_main:	
   655                           ; 1 bytes @ 0x0
   656                           
   657     0070                     ?__Umul8_16:	
   658                           ; 1 bytes @ 0x0
   659                           
   660     0070                     ?___xxtofl:	
   661                           ; 2 bytes @ 0x0
   662                           
   663     0070                     __Umul8_16@multiplicand:	
   664                           ; 4 bytes @ 0x0
   665                           
   666     0070                     PWM_duty@duty:	
   667                           ; 1 bytes @ 0x0
   668                           
   669     0070                     ___xxtofl@val:	
   670                           ; 2 bytes @ 0x0
   671                           
   672                           
   673                           ; 4 bytes @ 0x0
   674     0070                     	ds	2
   675     0072                     ??_PWM_duty:
   676     0072                     ??__Umul8_16:	
   677                           ; 1 bytes @ 0x2
   678                           
   679                           
   680                           ; 1 bytes @ 0x2
   681     0072                     	ds	2
   682     0074                     ??___xxtofl:
   683     0074                     PWM_duty@canal:	
   684                           ; 1 bytes @ 0x4
   685                           
   686     0074                     __Umul8_16@product:	
   687                           ; 1 bytes @ 0x4
   688                           
   689                           
   690                           ; 2 bytes @ 0x4
   691     0074                     	ds	2
   692     0076                     __Umul8_16@word_mpld:
   693                           
   694                           ; 2 bytes @ 0x6
   695     0076                     	ds	2
   696     0078                     __Umul8_16@multiplier:
   697     0078                     ___xxtofl@sign:	
   698                           ; 1 bytes @ 0x8
   699                           
   700                           
   701                           ; 1 bytes @ 0x8
   702     0078                     	ds	1
   703     0079                     ___xxtofl@exp:
   704                           
   705                           ; 1 bytes @ 0x9
   706     0079                     	ds	1
   707     007A                     ___xxtofl@arg:
   708                           
   709                           ; 4 bytes @ 0xA
   710     007A                     	ds	4
   711     007E                     ??_map:
   712                           
   713                           	psect	cstackBANK0
   714     0020                     __pcstackBANK0:	
   715                           ; 1 bytes @ 0xE
   716                           
   717     0020                     ?___fldiv:
   718     0020                     ___fldiv@a:	
   719                           ; 4 bytes @ 0x0
   720                           
   721                           
   722                           ; 4 bytes @ 0x0
   723     0020                     	ds	4
   724     0024                     ___fldiv@b:
   725                           
   726                           ; 4 bytes @ 0x4
   727     0024                     	ds	4
   728     0028                     ??___fldiv:
   729                           
   730                           ; 1 bytes @ 0x8
   731     0028                     	ds	5
   732     002D                     ___fldiv@rem:
   733                           
   734                           ; 4 bytes @ 0xD
   735     002D                     	ds	4
   736     0031                     ___fldiv@sign:
   737                           
   738                           ; 1 bytes @ 0x11
   739     0031                     	ds	1
   740     0032                     ___fldiv@new_exp:
   741                           
   742                           ; 2 bytes @ 0x12
   743     0032                     	ds	2
   744     0034                     ___fldiv@grs:
   745                           
   746                           ; 4 bytes @ 0x14
   747     0034                     	ds	4
   748     0038                     ___fldiv@bexp:
   749                           
   750                           ; 1 bytes @ 0x18
   751     0038                     	ds	1
   752     0039                     ___fldiv@aexp:
   753                           
   754                           ; 1 bytes @ 0x19
   755     0039                     	ds	1
   756     003A                     ?___flmul:
   757     003A                     ___flmul@b:	
   758                           ; 4 bytes @ 0x1A
   759                           
   760                           
   761                           ; 4 bytes @ 0x1A
   762     003A                     	ds	4
   763     003E                     ___flmul@a:
   764                           
   765                           ; 4 bytes @ 0x1E
   766     003E                     	ds	4
   767     0042                     ??___flmul:
   768                           
   769                           ; 1 bytes @ 0x22
   770     0042                     	ds	5
   771     0047                     ___flmul@sign:
   772                           
   773                           ; 1 bytes @ 0x27
   774     0047                     	ds	1
   775     0048                     ___flmul@grs:
   776                           
   777                           ; 4 bytes @ 0x28
   778     0048                     	ds	4
   779     004C                     ___flmul@aexp:
   780                           
   781                           ; 1 bytes @ 0x2C
   782     004C                     	ds	1
   783     004D                     ___flmul@bexp:
   784                           
   785                           ; 1 bytes @ 0x2D
   786     004D                     	ds	1
   787     004E                     ___flmul@prod:
   788                           
   789                           ; 4 bytes @ 0x2E
   790     004E                     	ds	4
   791     0052                     ___flmul@temp:
   792                           
   793                           ; 2 bytes @ 0x32
   794     0052                     	ds	2
   795     0054                     ?___fladd:
   796     0054                     ___fladd@b:	
   797                           ; 4 bytes @ 0x34
   798                           
   799                           
   800                           ; 4 bytes @ 0x34
   801     0054                     	ds	4
   802     0058                     ___fladd@a:
   803                           
   804                           ; 4 bytes @ 0x38
   805     0058                     	ds	4
   806     005C                     ??___fladd:
   807                           
   808                           ; 1 bytes @ 0x3C
   809     005C                     	ds	8
   810     0064                     ___fladd@signs:
   811                           
   812                           ; 1 bytes @ 0x44
   813     0064                     	ds	1
   814     0065                     ___fladd@aexp:
   815                           
   816                           ; 1 bytes @ 0x45
   817     0065                     	ds	1
   818     0066                     ___fladd@bexp:
   819                           
   820                           ; 1 bytes @ 0x46
   821     0066                     	ds	1
   822     0067                     ___fladd@grs:
   823                           
   824                           ; 1 bytes @ 0x47
   825     0067                     	ds	1
   826     0068                     ?___fltol:
   827     0068                     ___fltol@f1:	
   828                           ; 4 bytes @ 0x48
   829                           
   830                           
   831                           ; 4 bytes @ 0x48
   832     0068                     	ds	4
   833     006C                     ??___fltol:
   834                           
   835                           ; 1 bytes @ 0x4C
   836     006C                     	ds	4
   837                           
   838                           	psect	maintext
   839     0C39                     __pmaintext:	
   840 ;;
   841 ;;Main: autosize = 0, tempsize = 0, incstack = 0, save=0
   842 ;;
   843 ;; *************** function _main *****************
   844 ;; Defined at:
   845 ;;		line 175 in file "Lab7.c"
   846 ;; Parameters:    Size  Location     Type
   847 ;;		None
   848 ;; Auto vars:     Size  Location     Type
   849 ;;		None
   850 ;; Return value:  Size  Location     Type
   851 ;;                  1    wreg      void 
   852 ;; Registers used:
   853 ;;		wreg, fsr0l, fsr0h, status,2, status,0, pclath, cstack
   854 ;; Tracked objects:
   855 ;;		On entry : B00/0
   856 ;;		On exit  : 0/0
   857 ;;		Unchanged: 0/0
   858 ;; Data sizes:     COMMON   BANK0   BANK1   BANK3   BANK2
   859 ;;      Params:         0       0       0       0       0
   860 ;;      Locals:         0       0       0       0       0
   861 ;;      Temps:          0       0       0       0       0
   862 ;;      Totals:         0       0       0       0       0
   863 ;;Total ram usage:        0 bytes
   864 ;; Hardware stack levels required when called: 6
   865 ;; This function calls:
   866 ;;		_ADC_Change
   867 ;;		_ADC_Int
   868 ;;		_Int_Enable
   869 ;;		_PWM_config
   870 ;;		_Setup
   871 ;;		_TMR0_Config
   872 ;; This function is called by:
   873 ;;		Startup code after reset
   874 ;; This function uses a non-reentrant model
   875 ;;
   876                           
   877     0C39                     _main:	
   878                           ;psect for function _main
   879                           
   880     0C39                     l2185:	
   881                           ;incstack = 0
   882                           ; Regs used in _main: [wreg-fsr0h+status,2+status,0+pclath+cstack]
   883                           
   884                           
   885                           ;Lab7.c: 177:     Setup();
   886     0C39  120A  158A  23F3  120A  158A  	fcall	_Setup
   887     0C3E                     l2187:
   888                           
   889                           ;Lab7.c: 178:     Int_Enable();
   890     0C3E  120A  158A  23CA  120A  158A  	fcall	_Int_Enable
   891     0C43                     l2189:
   892                           
   893                           ;Lab7.c: 179:     TMR0_Config();
   894     0C43  120A  158A  23D5  120A  158A  	fcall	_TMR0_Config
   895     0C48                     l2191:
   896                           
   897                           ;Lab7.c: 180:     PWM_config(3,4);
   898     0C48  3004               	movlw	4
   899     0C49  1683               	bsf	3,5	;RP0=1, select bank1
   900     0C4A  1303               	bcf	3,6	;RP1=0, select bank1
   901     0C4B  00AE               	movwf	PWM_config@periodo^(0+128)
   902     0C4C  3000               	movlw	0
   903     0C4D  00AF               	movwf	(PWM_config@periodo^(0+128)+1)
   904     0C4E  3003               	movlw	3
   905     0C4F  120A  118A  279B  120A  158A  	fcall	_PWM_config
   906     0C54                     l2193:
   907                           
   908                           ;Lab7.c: 181:     ADC_Int(0);
   909     0C54  3000               	movlw	0
   910     0C55  120A  158A  23E2  120A  158A  	fcall	_ADC_Int
   911     0C5A                     l2195:
   912                           
   913                           ;Lab7.c: 183:     {;Lab7.c: 184:         ADC_Change();
   914     0C5A  120A  158A  2469  120A  158A  	fcall	_ADC_Change
   915     0C5F                     l2197:
   916                           
   917                           ;Lab7.c: 185:         PORTB = ADC3;
   918     0C5F  1683               	bsf	3,5	;RP0=1, select bank1
   919     0C60  1303               	bcf	3,6	;RP1=0, select bank1
   920     0C61  0837               	movf	_ADC3^(0+128),w
   921     0C62  1283               	bcf	3,5	;RP0=0, select bank0
   922     0C63  1303               	bcf	3,6	;RP1=0, select bank0
   923     0C64  0086               	movwf	6	;volatile
   924     0C65  2C5A               	goto	l2195
   925     0C66  120A  118A  2810   	ljmp	start
   926     0C69                     __end_of_main:
   927                           
   928                           	psect	text1
   929     0BD5                     __ptext1:	
   930 ;; *************** function _TMR0_Config *****************
   931 ;; Defined at:
   932 ;;		line 136 in file "Lab7.c"
   933 ;; Parameters:    Size  Location     Type
   934 ;;		None
   935 ;; Auto vars:     Size  Location     Type
   936 ;;		None
   937 ;; Return value:  Size  Location     Type
   938 ;;                  1    wreg      void 
   939 ;; Registers used:
   940 ;;		wreg
   941 ;; Tracked objects:
   942 ;;		On entry : 0/0
   943 ;;		On exit  : 0/0
   944 ;;		Unchanged: 0/0
   945 ;; Data sizes:     COMMON   BANK0   BANK1   BANK3   BANK2
   946 ;;      Params:         0       0       0       0       0
   947 ;;      Locals:         0       0       0       0       0
   948 ;;      Temps:          0       0       0       0       0
   949 ;;      Totals:         0       0       0       0       0
   950 ;;Total ram usage:        0 bytes
   951 ;; Hardware stack levels used: 1
   952 ;; Hardware stack levels required when called: 4
   953 ;; This function calls:
   954 ;;		Nothing
   955 ;; This function is called by:
   956 ;;		_main
   957 ;; This function uses a non-reentrant model
   958 ;;
   959                           
   960     0BD5                     _TMR0_Config:	
   961                           ;psect for function _TMR0_Config
   962                           
   963     0BD5                     l2081:	
   964                           ;incstack = 0
   965                           ; Regs used in _TMR0_Config: [wreg]
   966                           
   967                           
   968                           ;Lab7.c: 138:     OPTION_REGbits.T0CS = 0;
   969     0BD5  1683               	bsf	3,5	;RP0=1, select bank1
   970     0BD6  1303               	bcf	3,6	;RP1=0, select bank1
   971     0BD7  1281               	bcf	1,5	;volatile
   972                           
   973                           ;Lab7.c: 139:     OPTION_REGbits.PSA = 0;
   974     0BD8  1181               	bcf	1,3	;volatile
   975                           
   976                           ;Lab7.c: 140:     OPTION_REGbits.PS0 = 0;
   977     0BD9  1001               	bcf	1,0	;volatile
   978                           
   979                           ;Lab7.c: 141:     OPTION_REGbits.PS1 = 0;
   980     0BDA  1081               	bcf	1,1	;volatile
   981                           
   982                           ;Lab7.c: 142:     OPTION_REGbits.PS2 = 0;
   983     0BDB  1101               	bcf	1,2	;volatile
   984                           
   985                           ;Lab7.c: 143:     T0IF = 0;
   986     0BDC  110B               	bcf	11,2	;volatile
   987     0BDD                     l2083:
   988                           
   989                           ;Lab7.c: 144:     TMR0 = TMR0_Pre;
   990     0BDD  083F               	movf	_TMR0_Pre^(0+128),w
   991     0BDE  1283               	bcf	3,5	;RP0=0, select bank0
   992     0BDF  1303               	bcf	3,6	;RP1=0, select bank0
   993     0BE0  0081               	movwf	1	;volatile
   994     0BE1                     l91:
   995     0BE1  0008               	return
   996     0BE2                     __end_of_TMR0_Config:
   997                           
   998                           	psect	text2
   999     0BF3                     __ptext2:	
  1000 ;; *************** function _Setup *****************
  1001 ;; Defined at:
  1002 ;;		line 111 in file "Lab7.c"
  1003 ;; Parameters:    Size  Location     Type
  1004 ;;		None
  1005 ;; Auto vars:     Size  Location     Type
  1006 ;;		None
  1007 ;; Return value:  Size  Location     Type
  1008 ;;                  1    wreg      void 
  1009 ;; Registers used:
  1010 ;;		wreg, status,2
  1011 ;; Tracked objects:
  1012 ;;		On entry : 0/0
  1013 ;;		On exit  : 0/0
  1014 ;;		Unchanged: 0/0
  1015 ;; Data sizes:     COMMON   BANK0   BANK1   BANK3   BANK2
  1016 ;;      Params:         0       0       0       0       0
  1017 ;;      Locals:         0       0       0       0       0
  1018 ;;      Temps:          0       0       0       0       0
  1019 ;;      Totals:         0       0       0       0       0
  1020 ;;Total ram usage:        0 bytes
  1021 ;; Hardware stack levels used: 1
  1022 ;; Hardware stack levels required when called: 4
  1023 ;; This function calls:
  1024 ;;		Nothing
  1025 ;; This function is called by:
  1026 ;;		_main
  1027 ;; This function uses a non-reentrant model
  1028 ;;
  1029                           
  1030     0BF3                     _Setup:	
  1031                           ;psect for function _Setup
  1032                           
  1033     0BF3                     l2073:	
  1034                           ;incstack = 0
  1035                           ; Regs used in _Setup: [wreg+status,2]
  1036                           
  1037                           
  1038                           ;Lab7.c: 113:     ANSEL = 0x07;
  1039     0BF3  3007               	movlw	7
  1040     0BF4  1683               	bsf	3,5	;RP0=1, select bank3
  1041     0BF5  1703               	bsf	3,6	;RP1=1, select bank3
  1042     0BF6  0088               	movwf	8	;volatile
  1043     0BF7                     l2075:
  1044                           
  1045                           ;Lab7.c: 114:     ANSELH = 0x00;
  1046     0BF7  0189               	clrf	9	;volatile
  1047     0BF8                     l2077:
  1048                           
  1049                           ;Lab7.c: 115:     TRISA = 0x07;
  1050     0BF8  3007               	movlw	7
  1051     0BF9  1683               	bsf	3,5	;RP0=1, select bank1
  1052     0BFA  1303               	bcf	3,6	;RP1=0, select bank1
  1053     0BFB  0085               	movwf	5	;volatile
  1054                           
  1055                           ;Lab7.c: 116:     PORTA = 0;
  1056     0BFC  1283               	bcf	3,5	;RP0=0, select bank0
  1057     0BFD  1303               	bcf	3,6	;RP1=0, select bank0
  1058     0BFE  0185               	clrf	5	;volatile
  1059                           
  1060                           ;Lab7.c: 117:     TRISB = 0;
  1061     0BFF  1683               	bsf	3,5	;RP0=1, select bank1
  1062     0C00  1303               	bcf	3,6	;RP1=0, select bank1
  1063     0C01  0186               	clrf	6	;volatile
  1064                           
  1065                           ;Lab7.c: 118:     PORTB = 0;
  1066     0C02  1283               	bcf	3,5	;RP0=0, select bank0
  1067     0C03  1303               	bcf	3,6	;RP1=0, select bank0
  1068     0C04  0186               	clrf	6	;volatile
  1069                           
  1070                           ;Lab7.c: 119:     TRISC = 0;
  1071     0C05  1683               	bsf	3,5	;RP0=1, select bank1
  1072     0C06  1303               	bcf	3,6	;RP1=0, select bank1
  1073     0C07  0187               	clrf	7	;volatile
  1074                           
  1075                           ;Lab7.c: 120:     PORTC = 0;
  1076     0C08  1283               	bcf	3,5	;RP0=0, select bank0
  1077     0C09  1303               	bcf	3,6	;RP1=0, select bank0
  1078     0C0A  0187               	clrf	7	;volatile
  1079                           
  1080                           ;Lab7.c: 121:     TRISD = 0;
  1081     0C0B  1683               	bsf	3,5	;RP0=1, select bank1
  1082     0C0C  1303               	bcf	3,6	;RP1=0, select bank1
  1083     0C0D  0188               	clrf	8	;volatile
  1084                           
  1085                           ;Lab7.c: 122:     PORTD = 0;
  1086     0C0E  1283               	bcf	3,5	;RP0=0, select bank0
  1087     0C0F  1303               	bcf	3,6	;RP1=0, select bank0
  1088     0C10  0188               	clrf	8	;volatile
  1089     0C11                     l85:
  1090     0C11  0008               	return
  1091     0C12                     __end_of_Setup:
  1092                           
  1093                           	psect	text3
  1094     079B                     __ptext3:	
  1095 ;; *************** function _PWM_config *****************
  1096 ;; Defined at:
  1097 ;;		line 4 in file "PWM.c"
  1098 ;; Parameters:    Size  Location     Type
  1099 ;;  canal           1    wreg     unsigned char 
  1100 ;;  periodo         2   14[BANK1 ] int 
  1101 ;; Auto vars:     Size  Location     Type
  1102 ;;  canal           1   16[BANK1 ] unsigned char 
  1103 ;; Return value:  Size  Location     Type
  1104 ;;                  1    wreg      void 
  1105 ;; Registers used:
  1106 ;;		wreg, fsr0l, fsr0h, status,2, status,0
  1107 ;; Tracked objects:
  1108 ;;		On entry : 0/0
  1109 ;;		On exit  : 0/0
  1110 ;;		Unchanged: 0/0
  1111 ;; Data sizes:     COMMON   BANK0   BANK1   BANK3   BANK2
  1112 ;;      Params:         0       0       2       0       0
  1113 ;;      Locals:         0       0       1       0       0
  1114 ;;      Temps:          0       0       0       0       0
  1115 ;;      Totals:         0       0       3       0       0
  1116 ;;Total ram usage:        3 bytes
  1117 ;; Hardware stack levels used: 1
  1118 ;; Hardware stack levels required when called: 4
  1119 ;; This function calls:
  1120 ;;		Nothing
  1121 ;; This function is called by:
  1122 ;;		_main
  1123 ;; This function uses a non-reentrant model
  1124 ;;
  1125                           
  1126     079B                     _PWM_config:	
  1127                           ;psect for function _PWM_config
  1128                           
  1129                           
  1130                           ;incstack = 0
  1131                           ; Regs used in _PWM_config: [wreg-fsr0h+status,2+status,0]
  1132                           ;PWM_config@canal stored from wreg
  1133     079B  1683               	bsf	3,5	;RP0=1, select bank1
  1134     079C  1303               	bcf	3,6	;RP1=0, select bank1
  1135     079D  00B0               	movwf	PWM_config@canal^(0+128)
  1136     079E                     l2103:
  1137                           
  1138                           ;PWM.c: 4: void PWM_config(char canal, int periodo);PWM.c: 5: {;PWM.c: 6:     CCP1CON = 
      +                          0;
  1139     079E  1283               	bcf	3,5	;RP0=0, select bank0
  1140     079F  1303               	bcf	3,6	;RP1=0, select bank0
  1141     07A0  0197               	clrf	23	;volatile
  1142                           
  1143                           ;PWM.c: 7:     CCP2CON = 0;
  1144     07A1  019D               	clrf	29	;volatile
  1145                           
  1146                           ;PWM.c: 9:     switch (periodo)
  1147     07A2  2FAF               	goto	l2113
  1148     07A3                     l2105:
  1149                           
  1150                           ;PWM.c: 12:             PR2 = 125;
  1151     07A3  307D               	movlw	125
  1152     07A4  0092               	movwf	18	;volatile
  1153                           
  1154                           ;PWM.c: 13:             break;
  1155     07A5  2FC1               	goto	l2115
  1156     07A6                     l2107:
  1157                           
  1158                           ;PWM.c: 15:             PR2 = 188;
  1159     07A6  30BC               	movlw	188
  1160     07A7  0092               	movwf	18	;volatile
  1161                           
  1162                           ;PWM.c: 16:             break;
  1163     07A8  2FC1               	goto	l2115
  1164     07A9                     l2109:
  1165                           
  1166                           ;PWM.c: 18:             PR2 = 250;
  1167     07A9  30FA               	movlw	250
  1168     07AA  0092               	movwf	18	;volatile
  1169                           
  1170                           ;PWM.c: 19:             break;
  1171     07AB  2FC1               	goto	l2115
  1172     07AC                     l2111:
  1173                           
  1174                           ;PWM.c: 21:             PR2 = 63;
  1175     07AC  303F               	movlw	63
  1176     07AD  0092               	movwf	18	;volatile
  1177                           
  1178                           ;PWM.c: 22:     }
  1179     07AE  2FC1               	goto	l2115
  1180     07AF                     l2113:
  1181                           
  1182                           ; Switch on 2 bytes has been partitioned into a top level switch of size 1, and 1 sub-sw
      +                          itches
  1183                           ; Switch size 1, requested type "simple"
  1184                           ; Number of cases is 1, Range of values is 0 to 0
  1185                           ; switch strategies available:
  1186                           ; Name         Instructions Cycles
  1187                           ; simple_byte            4     3 (average)
  1188                           ; direct_byte           11     8 (fixed)
  1189                           ; jumptable            260     6 (fixed)
  1190                           ;	Chosen strategy is simple_byte
  1191     07AF  1683               	bsf	3,5	;RP0=1, select bank1
  1192     07B0  1303               	bcf	3,6	;RP1=0, select bank1
  1193     07B1  082F               	movf	(PWM_config@periodo+1)^(0+128),w
  1194     07B2  3A00               	xorlw	0	; case 0
  1195     07B3  1903               	skipnz
  1196     07B4  2FB6               	goto	l2219
  1197     07B5  2FAC               	goto	l2111
  1198     07B6                     l2219:
  1199                           
  1200                           ; Switch size 1, requested type "simple"
  1201                           ; Number of cases is 3, Range of values is 2 to 4
  1202                           ; switch strategies available:
  1203                           ; Name         Instructions Cycles
  1204                           ; simple_byte           10     6 (average)
  1205                           ; direct_byte           20    11 (fixed)
  1206                           ; jumptable            263     9 (fixed)
  1207                           ;	Chosen strategy is simple_byte
  1208     07B6  082E               	movf	PWM_config@periodo^(0+128),w
  1209     07B7  3A02               	xorlw	2	; case 2
  1210     07B8  1903               	skipnz
  1211     07B9  2FA3               	goto	l2105
  1212     07BA  3A01               	xorlw	1	; case 3
  1213     07BB  1903               	skipnz
  1214     07BC  2FA6               	goto	l2107
  1215     07BD  3A07               	xorlw	7	; case 4
  1216     07BE  1903               	skipnz
  1217     07BF  2FA9               	goto	l2109
  1218     07C0  2FAC               	goto	l2111
  1219     07C1                     l2115:
  1220                           
  1221                           ;PWM.c: 24:     if (canal == 1)
  1222     07C1  0330               	decf	PWM_config@canal^(0+128),w
  1223     07C2  1D03               	btfss	3,2
  1224     07C3  2FC5               	goto	u3031
  1225     07C4  2FC6               	goto	u3030
  1226     07C5                     u3031:
  1227     07C5  2FCF               	goto	l2119
  1228     07C6                     u3030:
  1229     07C6                     l2117:
  1230                           
  1231                           ;PWM.c: 25:     {;PWM.c: 26:         CCP1CONbits.P1M = 0;
  1232     07C6  303F               	movlw	-193
  1233     07C7  1283               	bcf	3,5	;RP0=0, select bank0
  1234     07C8  1303               	bcf	3,6	;RP1=0, select bank0
  1235     07C9  0597               	andwf	23,f	;volatile
  1236                           
  1237                           ;PWM.c: 27:         CCP1CONbits.CCP1M = 0b1100;
  1238     07CA  0817               	movf	23,w	;volatile
  1239     07CB  39F0               	andlw	-16
  1240     07CC  380C               	iorlw	12
  1241     07CD  0097               	movwf	23	;volatile
  1242                           
  1243                           ;PWM.c: 28:     }
  1244     07CE  2FEE               	goto	l2127
  1245     07CF                     l2119:
  1246     07CF  3002               	movlw	2
  1247     07D0  0630               	xorwf	PWM_config@canal^(0+128),w
  1248     07D1  1D03               	btfss	3,2
  1249     07D2  2FD4               	goto	u3041
  1250     07D3  2FD5               	goto	u3040
  1251     07D4                     u3041:
  1252     07D4  2FDC               	goto	l2123
  1253     07D5                     u3040:
  1254     07D5                     l2121:
  1255                           
  1256                           ;PWM.c: 30:     {;PWM.c: 31:         CCP2CONbits.CCP2M = 0b1100;
  1257     07D5  1283               	bcf	3,5	;RP0=0, select bank0
  1258     07D6  1303               	bcf	3,6	;RP1=0, select bank0
  1259     07D7  081D               	movf	29,w	;volatile
  1260     07D8  39F0               	andlw	-16
  1261     07D9  380C               	iorlw	12
  1262     07DA  009D               	movwf	29	;volatile
  1263                           
  1264                           ;PWM.c: 32:     }
  1265     07DB  2FEE               	goto	l2127
  1266     07DC                     l2123:
  1267     07DC  3003               	movlw	3
  1268     07DD  0630               	xorwf	PWM_config@canal^(0+128),w
  1269     07DE  1D03               	btfss	3,2
  1270     07DF  2FE1               	goto	u3051
  1271     07E0  2FE2               	goto	u3050
  1272     07E1                     u3051:
  1273     07E1  2FEE               	goto	l2127
  1274     07E2                     u3050:
  1275     07E2                     l2125:
  1276                           
  1277                           ;PWM.c: 34:     {;PWM.c: 35:         CCP1CONbits.P1M = 0;
  1278     07E2  303F               	movlw	-193
  1279     07E3  1283               	bcf	3,5	;RP0=0, select bank0
  1280     07E4  1303               	bcf	3,6	;RP1=0, select bank0
  1281     07E5  0597               	andwf	23,f	;volatile
  1282                           
  1283                           ;PWM.c: 36:         CCP1CONbits.CCP1M = 0b1100;
  1284     07E6  0817               	movf	23,w	;volatile
  1285     07E7  39F0               	andlw	-16
  1286     07E8  380C               	iorlw	12
  1287     07E9  0097               	movwf	23	;volatile
  1288                           
  1289                           ;PWM.c: 37:         CCP2CONbits.CCP2M = 0b1100;
  1290     07EA  081D               	movf	29,w	;volatile
  1291     07EB  39F0               	andlw	-16
  1292     07EC  380C               	iorlw	12
  1293     07ED  009D               	movwf	29	;volatile
  1294     07EE                     l2127:
  1295                           
  1296                           ;PWM.c: 39:         PIR1bits.TMR2IF = 0;
  1297     07EE  1283               	bcf	3,5	;RP0=0, select bank0
  1298     07EF  108C               	bcf	12,1	;volatile
  1299                           
  1300                           ;PWM.c: 40:         T2CONbits.T2CKPS = 0b11;
  1301     07F0  3003               	movlw	3
  1302     07F1  0492               	iorwf	18,f	;volatile
  1303     07F2                     l2129:
  1304                           
  1305                           ;PWM.c: 41:         T2CONbits.TMR2ON = 1;
  1306     07F2  1512               	bsf	18,2	;volatile
  1307     07F3                     l144:	
  1308                           ;PWM.c: 42:         while (!PIR1bits.TMR2IF);
  1309                           
  1310     07F3  1C8C               	btfss	12,1	;volatile
  1311     07F4  2FF6               	goto	u3061
  1312     07F5  2FF7               	goto	u3060
  1313     07F6                     u3061:
  1314     07F6  2FF3               	goto	l144
  1315     07F7                     u3060:
  1316     07F7                     l146:
  1317                           
  1318                           ;PWM.c: 43:         PIR1bits.TMR2IF = 0;
  1319     07F7  108C               	bcf	12,1	;volatile
  1320     07F8                     l147:
  1321     07F8  0008               	return
  1322     07F9                     __end_of_PWM_config:
  1323                           
  1324                           	psect	text4
  1325     0BCA                     __ptext4:	
  1326 ;; *************** function _Int_Enable *****************
  1327 ;; Defined at:
  1328 ;;		line 126 in file "Lab7.c"
  1329 ;; Parameters:    Size  Location     Type
  1330 ;;		None
  1331 ;; Auto vars:     Size  Location     Type
  1332 ;;		None
  1333 ;; Return value:  Size  Location     Type
  1334 ;;                  1    wreg      void 
  1335 ;; Registers used:
  1336 ;;		None
  1337 ;; Tracked objects:
  1338 ;;		On entry : 0/0
  1339 ;;		On exit  : 0/0
  1340 ;;		Unchanged: 0/0
  1341 ;; Data sizes:     COMMON   BANK0   BANK1   BANK3   BANK2
  1342 ;;      Params:         0       0       0       0       0
  1343 ;;      Locals:         0       0       0       0       0
  1344 ;;      Temps:          0       0       0       0       0
  1345 ;;      Totals:         0       0       0       0       0
  1346 ;;Total ram usage:        0 bytes
  1347 ;; Hardware stack levels used: 1
  1348 ;; Hardware stack levels required when called: 4
  1349 ;; This function calls:
  1350 ;;		Nothing
  1351 ;; This function is called by:
  1352 ;;		_main
  1353 ;; This function uses a non-reentrant model
  1354 ;;
  1355                           
  1356     0BCA                     _Int_Enable:	
  1357                           ;psect for function _Int_Enable
  1358                           
  1359     0BCA                     l2079:	
  1360                           ;incstack = 0
  1361                           ; Regs used in _Int_Enable: []
  1362                           
  1363                           
  1364                           ;Lab7.c: 128:     T0IF = 0;
  1365     0BCA  110B               	bcf	11,2	;volatile
  1366                           
  1367                           ;Lab7.c: 129:     T0IE = 1;
  1368     0BCB  168B               	bsf	11,5	;volatile
  1369                           
  1370                           ;Lab7.c: 130:     ADIF = 0;
  1371     0BCC  1283               	bcf	3,5	;RP0=0, select bank0
  1372     0BCD  1303               	bcf	3,6	;RP1=0, select bank0
  1373     0BCE  130C               	bcf	12,6	;volatile
  1374                           
  1375                           ;Lab7.c: 131:     ADIE = 1;
  1376     0BCF  1683               	bsf	3,5	;RP0=1, select bank1
  1377     0BD0  1303               	bcf	3,6	;RP1=0, select bank1
  1378     0BD1  170C               	bsf	12,6	;volatile
  1379                           
  1380                           ;Lab7.c: 132:     PEIE = 1;
  1381     0BD2  170B               	bsf	11,6	;volatile
  1382                           
  1383                           ;Lab7.c: 133:     GIE = 1;
  1384     0BD3  178B               	bsf	11,7	;volatile
  1385     0BD4                     l88:
  1386     0BD4  0008               	return
  1387     0BD5                     __end_of_Int_Enable:
  1388                           
  1389                           	psect	text5
  1390     0BE2                     __ptext5:	
  1391 ;; *************** function _ADC_Int *****************
  1392 ;; Defined at:
  1393 ;;		line 3 in file "ADC.c"
  1394 ;; Parameters:    Size  Location     Type
  1395 ;;  ADFM_Select     1    wreg     unsigned char 
  1396 ;; Auto vars:     Size  Location     Type
  1397 ;;  ADFM_Select     1   14[BANK1 ] unsigned char 
  1398 ;; Return value:  Size  Location     Type
  1399 ;;                  1    wreg      void 
  1400 ;; Registers used:
  1401 ;;		wreg, status,0
  1402 ;; Tracked objects:
  1403 ;;		On entry : 0/0
  1404 ;;		On exit  : 0/0
  1405 ;;		Unchanged: 0/0
  1406 ;; Data sizes:     COMMON   BANK0   BANK1   BANK3   BANK2
  1407 ;;      Params:         0       0       0       0       0
  1408 ;;      Locals:         0       0       1       0       0
  1409 ;;      Temps:          0       0       0       0       0
  1410 ;;      Totals:         0       0       1       0       0
  1411 ;;Total ram usage:        1 bytes
  1412 ;; Hardware stack levels used: 1
  1413 ;; Hardware stack levels required when called: 4
  1414 ;; This function calls:
  1415 ;;		Nothing
  1416 ;; This function is called by:
  1417 ;;		_main
  1418 ;; This function uses a non-reentrant model
  1419 ;;
  1420                           
  1421     0BE2                     _ADC_Int:	
  1422                           ;psect for function _ADC_Int
  1423                           
  1424                           
  1425                           ;incstack = 0
  1426                           ; Regs used in _ADC_Int: [wreg+status,0]
  1427                           ;ADC_Int@ADFM_Select stored from wreg
  1428     0BE2  1683               	bsf	3,5	;RP0=1, select bank1
  1429     0BE3  1303               	bcf	3,6	;RP1=0, select bank1
  1430     0BE4  00AE               	movwf	ADC_Int@ADFM_Select^(0+128)
  1431     0BE5                     l2135:
  1432                           
  1433                           ;ADC.c: 3: void ADC_Int(uint8_t ADFM_Select);ADC.c: 4: {;ADC.c: 5:     ADCON0 = 0b100000
      +                          01;
  1434     0BE5  3081               	movlw	129
  1435     0BE6  1283               	bcf	3,5	;RP0=0, select bank0
  1436     0BE7  1303               	bcf	3,6	;RP1=0, select bank0
  1437     0BE8  009F               	movwf	31	;volatile
  1438     0BE9                     l2137:
  1439                           
  1440                           ;ADC.c: 6:     ADCON1bits.ADFM = ADFM_Select;
  1441     0BE9  1683               	bsf	3,5	;RP0=1, select bank1
  1442     0BEA  1303               	bcf	3,6	;RP1=0, select bank1
  1443     0BEB  0C2E               	rrf	ADC_Int@ADFM_Select^(0+128),w
  1444     0BEC  1C03               	skipc
  1445     0BED  139F               	bcf	31,7	;volatile
  1446     0BEE  1803               	skipnc
  1447     0BEF  179F               	bsf	31,7	;volatile
  1448     0BF0                     l2139:
  1449                           
  1450                           ;ADC.c: 7:     ADCON1bits.VCFG1 = 0;
  1451     0BF0  129F               	bcf	31,5	;volatile
  1452     0BF1                     l2141:
  1453                           
  1454                           ;ADC.c: 8:     ADCON1bits.VCFG0 = 0;
  1455     0BF1  121F               	bcf	31,4	;volatile
  1456     0BF2                     l161:
  1457     0BF2  0008               	return
  1458     0BF3                     __end_of_ADC_Int:
  1459                           
  1460                           	psect	text6
  1461     0C69                     __ptext6:	
  1462 ;; *************** function _ADC_Change *****************
  1463 ;; Defined at:
  1464 ;;		line 150 in file "Lab7.c"
  1465 ;; Parameters:    Size  Location     Type
  1466 ;;		None
  1467 ;; Auto vars:     Size  Location     Type
  1468 ;;		None
  1469 ;; Return value:  Size  Location     Type
  1470 ;;                  1    wreg      void 
  1471 ;; Registers used:
  1472 ;;		wreg, status,2, status,0, pclath, cstack
  1473 ;; Tracked objects:
  1474 ;;		On entry : 0/0
  1475 ;;		On exit  : 0/0
  1476 ;;		Unchanged: 0/0
  1477 ;; Data sizes:     COMMON   BANK0   BANK1   BANK3   BANK2
  1478 ;;      Params:         0       0       0       0       0
  1479 ;;      Locals:         0       0       0       0       0
  1480 ;;      Temps:          0       0       0       0       0
  1481 ;;      Totals:         0       0       0       0       0
  1482 ;;Total ram usage:        0 bytes
  1483 ;; Hardware stack levels used: 1
  1484 ;; Hardware stack levels required when called: 5
  1485 ;; This function calls:
  1486 ;;		_ADC_Select
  1487 ;; This function is called by:
  1488 ;;		_main
  1489 ;; This function uses a non-reentrant model
  1490 ;;
  1491                           
  1492     0C69                     _ADC_Change:	
  1493                           ;psect for function _ADC_Change
  1494                           
  1495     0C69                     l2085:	
  1496                           ;incstack = 0
  1497                           ; Regs used in _ADC_Change: [wreg+status,2+status,0+pclath+cstack]
  1498                           
  1499                           
  1500                           ;Lab7.c: 152:     if (ADCON0bits.GO)
  1501     0C69  1283               	bcf	3,5	;RP0=0, select bank0
  1502     0C6A  1303               	bcf	3,6	;RP1=0, select bank0
  1503     0C6B  1C9F               	btfss	31,1	;volatile
  1504     0C6C  2C6E               	goto	u2981
  1505     0C6D  2C6F               	goto	u2980
  1506     0C6E                     u2981:
  1507     0C6E  2C70               	goto	l2091
  1508     0C6F                     u2980:
  1509     0C6F  2CA6               	goto	l95
  1510     0C70                     l2091:
  1511     0C70  1683               	bsf	3,5	;RP0=1, select bank1
  1512     0C71  1303               	bcf	3,6	;RP1=0, select bank1
  1513     0C72  083E               	movf	_Bandera_ADC^(0+128),w
  1514     0C73  1D03               	btfss	3,2
  1515     0C74  2C76               	goto	u2991
  1516     0C75  2C77               	goto	u2990
  1517     0C76                     u2991:
  1518     0C76  2C80               	goto	l2095
  1519     0C77                     u2990:
  1520     0C77                     l2093:
  1521                           
  1522                           ;Lab7.c: 157:     {;Lab7.c: 158:         ADC_Select(0);
  1523     0C77  3000               	movlw	0
  1524     0C78  00AE               	movwf	ADC_Select@channel^(0+128)
  1525     0C79  00AF               	movwf	(ADC_Select@channel+1)^(0+128)
  1526     0C7A  120A  158A  24EC  120A  158A  	fcall	_ADC_Select
  1527                           
  1528                           ;Lab7.c: 159:     }
  1529     0C7F  2C9F               	goto	l102
  1530     0C80                     l2095:
  1531     0C80  033E               	decf	_Bandera_ADC^(0+128),w
  1532     0C81  1D03               	btfss	3,2
  1533     0C82  2C84               	goto	u3001
  1534     0C83  2C85               	goto	u3000
  1535     0C84                     u3001:
  1536     0C84  2C8F               	goto	l2099
  1537     0C85                     u3000:
  1538     0C85                     l2097:
  1539                           
  1540                           ;Lab7.c: 161:     {;Lab7.c: 162:         ADC_Select(1);
  1541     0C85  3001               	movlw	1
  1542     0C86  00AE               	movwf	ADC_Select@channel^(0+128)
  1543     0C87  3000               	movlw	0
  1544     0C88  00AF               	movwf	(ADC_Select@channel^(0+128)+1)
  1545     0C89  120A  158A  24EC  120A  158A  	fcall	_ADC_Select
  1546                           
  1547                           ;Lab7.c: 163:     }
  1548     0C8E  2C9F               	goto	l102
  1549     0C8F                     l2099:
  1550     0C8F  3002               	movlw	2
  1551     0C90  063E               	xorwf	_Bandera_ADC^(0+128),w
  1552     0C91  1D03               	btfss	3,2
  1553     0C92  2C94               	goto	u3011
  1554     0C93  2C95               	goto	u3010
  1555     0C94                     u3011:
  1556     0C94  2C9F               	goto	l98
  1557     0C95                     u3010:
  1558     0C95                     l2101:
  1559                           
  1560                           ;Lab7.c: 165:     {;Lab7.c: 166:         ADC_Select(2);
  1561     0C95  3002               	movlw	2
  1562     0C96  00AE               	movwf	ADC_Select@channel^(0+128)
  1563     0C97  3000               	movlw	0
  1564     0C98  00AF               	movwf	(ADC_Select@channel^(0+128)+1)
  1565     0C99  120A  158A  24EC  120A  158A  	fcall	_ADC_Select
  1566     0C9E  2C9F               	goto	l102
  1567     0C9F                     l98:
  1568     0C9F                     l102:
  1569     0C9F  1283               	bcf	3,5	;RP0=0, select bank0
  1570     0CA0  1303               	bcf	3,6	;RP1=0, select bank0
  1571     0CA1  189F               	btfsc	31,1	;volatile
  1572     0CA2  2CA4               	goto	u3021
  1573     0CA3  2CA5               	goto	u3020
  1574     0CA4                     u3021:
  1575     0CA4  2C9F               	goto	l102
  1576     0CA5                     u3020:
  1577     0CA5                     l104:
  1578                           
  1579                           ;Lab7.c: 169:     ADCON0bits.GO = 1;
  1580     0CA5  149F               	bsf	31,1	;volatile
  1581     0CA6                     l95:
  1582     0CA6  0008               	return
  1583     0CA7                     __end_of_ADC_Change:
  1584                           
  1585                           	psect	text7
  1586     0CEC                     __ptext7:	
  1587 ;; *************** function _ADC_Select *****************
  1588 ;; Defined at:
  1589 ;;		line 11 in file "ADC.c"
  1590 ;; Parameters:    Size  Location     Type
  1591 ;;  channel         2   14[BANK1 ] int 
  1592 ;; Auto vars:     Size  Location     Type
  1593 ;;		None
  1594 ;; Return value:  Size  Location     Type
  1595 ;;                  1    wreg      void 
  1596 ;; Registers used:
  1597 ;;		wreg, status,2, status,0
  1598 ;; Tracked objects:
  1599 ;;		On entry : 0/0
  1600 ;;		On exit  : 0/0
  1601 ;;		Unchanged: 0/0
  1602 ;; Data sizes:     COMMON   BANK0   BANK1   BANK3   BANK2
  1603 ;;      Params:         0       0       2       0       0
  1604 ;;      Locals:         0       0       0       0       0
  1605 ;;      Temps:          0       0       3       0       0
  1606 ;;      Totals:         0       0       5       0       0
  1607 ;;Total ram usage:        5 bytes
  1608 ;; Hardware stack levels used: 1
  1609 ;; Hardware stack levels required when called: 4
  1610 ;; This function calls:
  1611 ;;		Nothing
  1612 ;; This function is called by:
  1613 ;;		_ADC_Change
  1614 ;; This function uses a non-reentrant model
  1615 ;;
  1616                           
  1617     0CEC                     _ADC_Select:	
  1618                           ;psect for function _ADC_Select
  1619                           
  1620     0CEC                     l1503:	
  1621                           ;incstack = 0
  1622                           ; Regs used in _ADC_Select: [wreg+status,2+status,0]
  1623                           
  1624                           
  1625                           ;ADC.c: 11: void ADC_Select(int channel);ADC.c: 12: {;ADC.c: 13:     ADCON0bits.CHS0 = (
      +                          channel >> 0) & 0x01;
  1626     0CEC  1683               	bsf	3,5	;RP0=1, select bank1
  1627     0CED  1303               	bcf	3,6	;RP1=0, select bank1
  1628     0CEE  082E               	movf	ADC_Select@channel^(0+128),w
  1629     0CEF  3901               	andlw	1
  1630     0CF0  00B0               	movwf	??_ADC_Select^(0+128)
  1631     0CF1  0DB0               	rlf	??_ADC_Select^(0+128),f
  1632     0CF2  0DB0               	rlf	??_ADC_Select^(0+128),f
  1633     0CF3  1283               	bcf	3,5	;RP0=0, select bank0
  1634     0CF4  1303               	bcf	3,6	;RP1=0, select bank0
  1635     0CF5  081F               	movf	31,w	;volatile
  1636     0CF6  1683               	bsf	3,5	;RP0=1, select bank1
  1637     0CF7  1303               	bcf	3,6	;RP1=0, select bank1
  1638     0CF8  0630               	xorwf	??_ADC_Select^(0+128),w
  1639     0CF9  39FB               	andlw	-5
  1640     0CFA  0630               	xorwf	??_ADC_Select^(0+128),w
  1641     0CFB  1283               	bcf	3,5	;RP0=0, select bank0
  1642     0CFC  1303               	bcf	3,6	;RP1=0, select bank0
  1643     0CFD  009F               	movwf	31	;volatile
  1644                           
  1645                           ;ADC.c: 14:     ADCON0bits.CHS1 = (channel >> 1) & 0x01;
  1646     0CFE  1683               	bsf	3,5	;RP0=1, select bank1
  1647     0CFF  1303               	bcf	3,6	;RP1=0, select bank1
  1648     0D00  082F               	movf	(ADC_Select@channel+1)^(0+128),w
  1649     0D01  00B1               	movwf	(??_ADC_Select^(0+128)+1)
  1650     0D02  082E               	movf	ADC_Select@channel^(0+128),w
  1651     0D03  00B0               	movwf	??_ADC_Select^(0+128)
  1652     0D04  0D31               	rlf	(??_ADC_Select^(0+128)+1),w
  1653     0D05  0CB1               	rrf	(??_ADC_Select^(0+128)+1),f
  1654     0D06  0CB0               	rrf	??_ADC_Select^(0+128),f
  1655     0D07  0830               	movf	??_ADC_Select^(0+128),w
  1656     0D08  3901               	andlw	1
  1657     0D09  00B2               	movwf	(??_ADC_Select+2)^(0+128)
  1658     0D0A  0DB2               	rlf	(??_ADC_Select+2)^(0+128),f
  1659     0D0B  0DB2               	rlf	(??_ADC_Select+2)^(0+128),f
  1660     0D0C  0DB2               	rlf	(??_ADC_Select+2)^(0+128),f
  1661     0D0D  1283               	bcf	3,5	;RP0=0, select bank0
  1662     0D0E  1303               	bcf	3,6	;RP1=0, select bank0
  1663     0D0F  081F               	movf	31,w	;volatile
  1664     0D10  1683               	bsf	3,5	;RP0=1, select bank1
  1665     0D11  1303               	bcf	3,6	;RP1=0, select bank1
  1666     0D12  0632               	xorwf	(??_ADC_Select+2)^(0+128),w
  1667     0D13  39F7               	andlw	-9
  1668     0D14  0632               	xorwf	(??_ADC_Select+2)^(0+128),w
  1669     0D15  1283               	bcf	3,5	;RP0=0, select bank0
  1670     0D16  1303               	bcf	3,6	;RP1=0, select bank0
  1671     0D17  009F               	movwf	31	;volatile
  1672                           
  1673                           ;ADC.c: 15:     ADCON0bits.CHS2 = (channel >> 2) & 0x01;
  1674     0D18  1683               	bsf	3,5	;RP0=1, select bank1
  1675     0D19  1303               	bcf	3,6	;RP1=0, select bank1
  1676     0D1A  082F               	movf	(ADC_Select@channel+1)^(0+128),w
  1677     0D1B  00B1               	movwf	(??_ADC_Select^(0+128)+1)
  1678     0D1C  082E               	movf	ADC_Select@channel^(0+128),w
  1679     0D1D  00B0               	movwf	??_ADC_Select^(0+128)
  1680     0D1E  0D31               	rlf	(??_ADC_Select^(0+128)+1),w
  1681     0D1F  0CB1               	rrf	(??_ADC_Select^(0+128)+1),f
  1682     0D20  0CB0               	rrf	??_ADC_Select^(0+128),f
  1683     0D21  0D31               	rlf	(??_ADC_Select^(0+128)+1),w
  1684     0D22  0CB1               	rrf	(??_ADC_Select^(0+128)+1),f
  1685     0D23  0CB0               	rrf	??_ADC_Select^(0+128),f
  1686     0D24  0830               	movf	??_ADC_Select^(0+128),w
  1687     0D25  3901               	andlw	1
  1688     0D26  00B2               	movwf	(??_ADC_Select+2)^(0+128)
  1689     0D27  0EB2               	swapf	(??_ADC_Select+2)^(0+128),f
  1690     0D28  1283               	bcf	3,5	;RP0=0, select bank0
  1691     0D29  1303               	bcf	3,6	;RP1=0, select bank0
  1692     0D2A  081F               	movf	31,w	;volatile
  1693     0D2B  1683               	bsf	3,5	;RP0=1, select bank1
  1694     0D2C  1303               	bcf	3,6	;RP1=0, select bank1
  1695     0D2D  0632               	xorwf	(??_ADC_Select+2)^(0+128),w
  1696     0D2E  39EF               	andlw	-17
  1697     0D2F  0632               	xorwf	(??_ADC_Select+2)^(0+128),w
  1698     0D30  1283               	bcf	3,5	;RP0=0, select bank0
  1699     0D31  1303               	bcf	3,6	;RP1=0, select bank0
  1700     0D32  009F               	movwf	31	;volatile
  1701                           
  1702                           ;ADC.c: 16:     ADCON0bits.CHS3 = (channel >> 3) & 0x01;
  1703     0D33  1683               	bsf	3,5	;RP0=1, select bank1
  1704     0D34  1303               	bcf	3,6	;RP1=0, select bank1
  1705     0D35  082F               	movf	(ADC_Select@channel+1)^(0+128),w
  1706     0D36  00B1               	movwf	(??_ADC_Select^(0+128)+1)
  1707     0D37  082E               	movf	ADC_Select@channel^(0+128),w
  1708     0D38  00B0               	movwf	??_ADC_Select^(0+128)
  1709     0D39  0D31               	rlf	(??_ADC_Select^(0+128)+1),w
  1710     0D3A  0CB1               	rrf	(??_ADC_Select^(0+128)+1),f
  1711     0D3B  0CB0               	rrf	??_ADC_Select^(0+128),f
  1712     0D3C  0D31               	rlf	(??_ADC_Select^(0+128)+1),w
  1713     0D3D  0CB1               	rrf	(??_ADC_Select^(0+128)+1),f
  1714     0D3E  0CB0               	rrf	??_ADC_Select^(0+128),f
  1715     0D3F  0D31               	rlf	(??_ADC_Select^(0+128)+1),w
  1716     0D40  0CB1               	rrf	(??_ADC_Select^(0+128)+1),f
  1717     0D41  0CB0               	rrf	??_ADC_Select^(0+128),f
  1718     0D42  0830               	movf	??_ADC_Select^(0+128),w
  1719     0D43  3901               	andlw	1
  1720     0D44  00B2               	movwf	(??_ADC_Select+2)^(0+128)
  1721     0D45  0EB2               	swapf	(??_ADC_Select+2)^(0+128),f
  1722     0D46  0DB2               	rlf	(??_ADC_Select+2)^(0+128),f
  1723     0D47  1283               	bcf	3,5	;RP0=0, select bank0
  1724     0D48  1303               	bcf	3,6	;RP1=0, select bank0
  1725     0D49  081F               	movf	31,w	;volatile
  1726     0D4A  1683               	bsf	3,5	;RP0=1, select bank1
  1727     0D4B  1303               	bcf	3,6	;RP1=0, select bank1
  1728     0D4C  0632               	xorwf	(??_ADC_Select+2)^(0+128),w
  1729     0D4D  39DF               	andlw	-33
  1730     0D4E  0632               	xorwf	(??_ADC_Select+2)^(0+128),w
  1731     0D4F  1283               	bcf	3,5	;RP0=0, select bank0
  1732     0D50  1303               	bcf	3,6	;RP1=0, select bank0
  1733     0D51  009F               	movwf	31	;volatile
  1734     0D52                     l164:
  1735     0D52  0008               	return
  1736     0D53                     __end_of_ADC_Select:
  1737                           
  1738                           	psect	text8
  1739     0F47                     __ptext8:	
  1740 ;; *************** function _isr *****************
  1741 ;; Defined at:
  1742 ;;		line 65 in file "Lab7.c"
  1743 ;; Parameters:    Size  Location     Type
  1744 ;;		None
  1745 ;; Auto vars:     Size  Location     Type
  1746 ;;		None
  1747 ;; Return value:  Size  Location     Type
  1748 ;;                  1    wreg      void 
  1749 ;; Registers used:
  1750 ;;		wreg, status,2, status,0, btemp+1, pclath, cstack
  1751 ;; Tracked objects:
  1752 ;;		On entry : 0/0
  1753 ;;		On exit  : 0/0
  1754 ;;		Unchanged: 0/0
  1755 ;; Data sizes:     COMMON   BANK0   BANK1   BANK3   BANK2
  1756 ;;      Params:         0       0       0       0       0
  1757 ;;      Locals:         0       0       0       0       0
  1758 ;;      Temps:          0       0       5       0       0
  1759 ;;      Totals:         0       0       5       0       0
  1760 ;;Total ram usage:        5 bytes
  1761 ;; Hardware stack levels used: 1
  1762 ;; Hardware stack levels required when called: 3
  1763 ;; This function calls:
  1764 ;;		_PWM_duty
  1765 ;;		_map
  1766 ;; This function is called by:
  1767 ;;		Interrupt level 1
  1768 ;; This function uses a non-reentrant model
  1769 ;;
  1770                           
  1771     0F47                     _isr:	
  1772                           ;psect for function _isr
  1773                           
  1774     0F47                     i1l2143:
  1775                           
  1776                           ;Lab7.c: 67:     if (ADIF)
  1777     0F47  1283               	bcf	3,5	;RP0=0, select bank0
  1778     0F48  1303               	bcf	3,6	;RP1=0, select bank0
  1779     0F49  1F0C               	btfss	12,6	;volatile
  1780     0F4A  2F4C               	goto	u307_21
  1781     0F4B  2F4D               	goto	u307_20
  1782     0F4C                     u307_21:
  1783     0F4C  2FD0               	goto	i1l2173
  1784     0F4D                     u307_20:
  1785     0F4D                     i1l2145:
  1786                           
  1787                           ;Lab7.c: 68:     {;Lab7.c: 69:         if (Bandera_ADC == 0)
  1788     0F4D  1683               	bsf	3,5	;RP0=1, select bank1
  1789     0F4E  1303               	bcf	3,6	;RP1=0, select bank1
  1790     0F4F  083E               	movf	_Bandera_ADC^(0+128),w
  1791     0F50  1D03               	btfss	3,2
  1792     0F51  2F53               	goto	u308_21
  1793     0F52  2F54               	goto	u308_20
  1794     0F53                     u308_21:
  1795     0F53  2F85               	goto	i1l2155
  1796     0F54                     u308_20:
  1797     0F54                     i1l2147:
  1798                           
  1799                           ;Lab7.c: 70:         {;Lab7.c: 71:             ADC1 = ADRESH;
  1800     0F54  1283               	bcf	3,5	;RP0=0, select bank0
  1801     0F55  1303               	bcf	3,6	;RP1=0, select bank0
  1802     0F56  081E               	movf	30,w	;volatile
  1803     0F57  1683               	bsf	3,5	;RP0=1, select bank1
  1804     0F58  1303               	bcf	3,6	;RP1=0, select bank1
  1805     0F59  00A9               	movwf	??_isr^(0+128)
  1806     0F5A  01AA               	clrf	(??_isr^(0+128)+1)
  1807     0F5B  0829               	movf	??_isr^(0+128),w
  1808     0F5C  00BB               	movwf	_ADC1^(0+128)
  1809     0F5D  082A               	movf	(??_isr+1)^(0+128),w
  1810     0F5E  00BC               	movwf	(_ADC1+1)^(0+128)
  1811     0F5F                     i1l2149:
  1812                           
  1813                           ;Lab7.c: 72:             Servo1_Val = map(ADC1,0,255,160,650);
  1814     0F5F  01A2               	clrf	map@x0^(0+128)
  1815     0F60  30FF               	movlw	255
  1816     0F61  00A3               	movwf	map@x1^(0+128)
  1817     0F62  30A0               	movlw	160
  1818     0F63  00A4               	movwf	map@y0^(0+128)
  1819     0F64  3000               	movlw	0
  1820     0F65  00A5               	movwf	(map@y0^(0+128)+1)
  1821     0F66  308A               	movlw	138
  1822     0F67  00A6               	movwf	map@y1^(0+128)
  1823     0F68  3002               	movlw	2
  1824     0F69  00A7               	movwf	(map@y1^(0+128)+1)
  1825     0F6A  083B               	movf	_ADC1^(0+128),w
  1826     0F6B  120A  158A  25E1  120A  158A  	fcall	_map
  1827     0F70  1683               	bsf	3,5	;RP0=1, select bank1
  1828     0F71  1303               	bcf	3,6	;RP1=0, select bank1
  1829     0F72  0823               	movf	(?_map+1)^(0+128),w
  1830     0F73  00B6               	movwf	(_Servo1_Val+1)^(0+128)
  1831     0F74  0822               	movf	?_map^(0+128),w
  1832     0F75  00B5               	movwf	_Servo1_Val^(0+128)
  1833     0F76                     i1l2151:
  1834                           
  1835                           ;Lab7.c: 73:             PWM_duty(1,Servo1_Val);
  1836     0F76  0836               	movf	(_Servo1_Val+1)^(0+128),w
  1837     0F77  00F1               	movwf	PWM_duty@duty+1
  1838     0F78  0835               	movf	_Servo1_Val^(0+128),w
  1839     0F79  00F0               	movwf	PWM_duty@duty
  1840     0F7A  3001               	movlw	1
  1841     0F7B  120A  158A  24A7  120A  158A  	fcall	_PWM_duty
  1842     0F80                     i1l2153:
  1843                           
  1844                           ;Lab7.c: 74:             Bandera_ADC = 1;
  1845     0F80  1683               	bsf	3,5	;RP0=1, select bank1
  1846     0F81  1303               	bcf	3,6	;RP1=0, select bank1
  1847     0F82  01BE               	clrf	_Bandera_ADC^(0+128)
  1848     0F83  0ABE               	incf	_Bandera_ADC^(0+128),f
  1849                           
  1850                           ;Lab7.c: 75:         }
  1851     0F84  2FCD               	goto	i1l2171
  1852     0F85                     i1l2155:
  1853     0F85  033E               	decf	_Bandera_ADC^(0+128),w
  1854     0F86  1D03               	btfss	3,2
  1855     0F87  2F89               	goto	u309_21
  1856     0F88  2F8A               	goto	u309_20
  1857     0F89                     u309_21:
  1858     0F89  2FBB               	goto	i1l2165
  1859     0F8A                     u309_20:
  1860     0F8A                     i1l2157:
  1861                           
  1862                           ;Lab7.c: 77:         {;Lab7.c: 78:             ADC2 = ADRESH;
  1863     0F8A  1283               	bcf	3,5	;RP0=0, select bank0
  1864     0F8B  1303               	bcf	3,6	;RP1=0, select bank0
  1865     0F8C  081E               	movf	30,w	;volatile
  1866     0F8D  1683               	bsf	3,5	;RP0=1, select bank1
  1867     0F8E  1303               	bcf	3,6	;RP1=0, select bank1
  1868     0F8F  00A9               	movwf	??_isr^(0+128)
  1869     0F90  01AA               	clrf	(??_isr^(0+128)+1)
  1870     0F91  0829               	movf	??_isr^(0+128),w
  1871     0F92  00B9               	movwf	_ADC2^(0+128)
  1872     0F93  082A               	movf	(??_isr+1)^(0+128),w
  1873     0F94  00BA               	movwf	(_ADC2+1)^(0+128)
  1874     0F95                     i1l2159:
  1875                           
  1876                           ;Lab7.c: 79:             Servo2_Val = map(ADC2,0,255,160,650);
  1877     0F95  01A2               	clrf	map@x0^(0+128)
  1878     0F96  30FF               	movlw	255
  1879     0F97  00A3               	movwf	map@x1^(0+128)
  1880     0F98  30A0               	movlw	160
  1881     0F99  00A4               	movwf	map@y0^(0+128)
  1882     0F9A  3000               	movlw	0
  1883     0F9B  00A5               	movwf	(map@y0^(0+128)+1)
  1884     0F9C  308A               	movlw	138
  1885     0F9D  00A6               	movwf	map@y1^(0+128)
  1886     0F9E  3002               	movlw	2
  1887     0F9F  00A7               	movwf	(map@y1^(0+128)+1)
  1888     0FA0  0839               	movf	_ADC2^(0+128),w
  1889     0FA1  120A  158A  25E1  120A  158A  	fcall	_map
  1890     0FA6  1683               	bsf	3,5	;RP0=1, select bank1
  1891     0FA7  1303               	bcf	3,6	;RP1=0, select bank1
  1892     0FA8  0823               	movf	(?_map+1)^(0+128),w
  1893     0FA9  00B4               	movwf	(_Servo2_Val+1)^(0+128)
  1894     0FAA  0822               	movf	?_map^(0+128),w
  1895     0FAB  00B3               	movwf	_Servo2_Val^(0+128)
  1896     0FAC                     i1l2161:
  1897                           
  1898                           ;Lab7.c: 80:             PWM_duty(2,Servo2_Val);
  1899     0FAC  0834               	movf	(_Servo2_Val+1)^(0+128),w
  1900     0FAD  00F1               	movwf	PWM_duty@duty+1
  1901     0FAE  0833               	movf	_Servo2_Val^(0+128),w
  1902     0FAF  00F0               	movwf	PWM_duty@duty
  1903     0FB0  3002               	movlw	2
  1904     0FB1  120A  158A  24A7  120A  158A  	fcall	_PWM_duty
  1905     0FB6                     i1l2163:
  1906                           
  1907                           ;Lab7.c: 81:             Bandera_ADC = 2;
  1908     0FB6  3002               	movlw	2
  1909     0FB7  1683               	bsf	3,5	;RP0=1, select bank1
  1910     0FB8  1303               	bcf	3,6	;RP1=0, select bank1
  1911     0FB9  00BE               	movwf	_Bandera_ADC^(0+128)
  1912                           
  1913                           ;Lab7.c: 82:         }
  1914     0FBA  2FCD               	goto	i1l2171
  1915     0FBB                     i1l2165:
  1916     0FBB  3002               	movlw	2
  1917     0FBC  063E               	xorwf	_Bandera_ADC^(0+128),w
  1918     0FBD  1D03               	btfss	3,2
  1919     0FBE  2FC0               	goto	u310_21
  1920     0FBF  2FC1               	goto	u310_20
  1921     0FC0                     u310_21:
  1922     0FC0  2FCD               	goto	i1l2171
  1923     0FC1                     u310_20:
  1924     0FC1                     i1l2167:
  1925                           
  1926                           ;Lab7.c: 84:         {;Lab7.c: 85:             ADC3 = ADRESH;
  1927     0FC1  1283               	bcf	3,5	;RP0=0, select bank0
  1928     0FC2  1303               	bcf	3,6	;RP1=0, select bank0
  1929     0FC3  081E               	movf	30,w	;volatile
  1930     0FC4  1683               	bsf	3,5	;RP0=1, select bank1
  1931     0FC5  1303               	bcf	3,6	;RP1=0, select bank1
  1932     0FC6  00A9               	movwf	??_isr^(0+128)
  1933     0FC7  01AA               	clrf	(??_isr^(0+128)+1)
  1934     0FC8  0829               	movf	??_isr^(0+128),w
  1935     0FC9  00B7               	movwf	_ADC3^(0+128)
  1936     0FCA  082A               	movf	(??_isr+1)^(0+128),w
  1937     0FCB  00B8               	movwf	(_ADC3+1)^(0+128)
  1938     0FCC                     i1l2169:
  1939                           
  1940                           ;Lab7.c: 86:             Bandera_ADC = 0;
  1941     0FCC  01BE               	clrf	_Bandera_ADC^(0+128)
  1942     0FCD                     i1l2171:
  1943                           
  1944                           ;Lab7.c: 88:         ADIF = 0;
  1945     0FCD  1283               	bcf	3,5	;RP0=0, select bank0
  1946     0FCE  1303               	bcf	3,6	;RP1=0, select bank0
  1947     0FCF  130C               	bcf	12,6	;volatile
  1948     0FD0                     i1l2173:
  1949                           
  1950                           ;Lab7.c: 91:     if(T0IF)
  1951     0FD0  1D0B               	btfss	11,2	;volatile
  1952     0FD1  2FD3               	goto	u311_21
  1953     0FD2  2FD4               	goto	u311_20
  1954     0FD3                     u311_21:
  1955     0FD3  2FF5               	goto	i1l82
  1956     0FD4                     u311_20:
  1957     0FD4                     i1l2175:
  1958                           
  1959                           ;Lab7.c: 92:     {;Lab7.c: 93:         Contador_PWM++;
  1960     0FD4  3001               	movlw	1
  1961     0FD5  1683               	bsf	3,5	;RP0=1, select bank1
  1962     0FD6  1303               	bcf	3,6	;RP1=0, select bank1
  1963     0FD7  00A9               	movwf	??_isr^(0+128)
  1964     0FD8  0829               	movf	??_isr^(0+128),w
  1965     0FD9  07BD               	addwf	_Contador_PWM^(0+128),f
  1966     0FDA                     i1l2177:
  1967                           
  1968                           ;Lab7.c: 94:         if (Contador_PWM <= ADC3)
  1969     0FDA  083D               	movf	_Contador_PWM^(0+128),w
  1970     0FDB  00A9               	movwf	??_isr^(0+128)
  1971     0FDC  01AA               	clrf	(??_isr^(0+128)+1)
  1972     0FDD  082A               	movf	(??_isr+1)^(0+128),w
  1973     0FDE  0238               	subwf	(_ADC3+1)^(0+128),w
  1974     0FDF  1D03               	skipz
  1975     0FE0  2FE3               	goto	u312_25
  1976     0FE1  0829               	movf	??_isr^(0+128),w
  1977     0FE2  0237               	subwf	_ADC3^(0+128),w
  1978     0FE3                     u312_25:
  1979     0FE3  1C03               	skipc
  1980     0FE4  2FE6               	goto	u312_21
  1981     0FE5  2FE7               	goto	u312_20
  1982     0FE6                     u312_21:
  1983     0FE6  2FEB               	goto	i1l80
  1984     0FE7                     u312_20:
  1985     0FE7                     i1l2179:
  1986                           
  1987                           ;Lab7.c: 95:         {;Lab7.c: 96:             PORTCbits.RC3 = 1;
  1988     0FE7  1283               	bcf	3,5	;RP0=0, select bank0
  1989     0FE8  1303               	bcf	3,6	;RP1=0, select bank0
  1990     0FE9  1587               	bsf	7,3	;volatile
  1991                           
  1992                           ;Lab7.c: 97:         }
  1993     0FEA  2FEE               	goto	i1l81
  1994     0FEB                     i1l80:	
  1995                           ;Lab7.c: 98:         else
  1996                           
  1997                           
  1998                           ;Lab7.c: 99:         {;Lab7.c: 100:             PORTCbits.RC3 = 0;
  1999     0FEB  1283               	bcf	3,5	;RP0=0, select bank0
  2000     0FEC  1303               	bcf	3,6	;RP1=0, select bank0
  2001     0FED  1187               	bcf	7,3	;volatile
  2002     0FEE                     i1l81:	
  2003                           ;Lab7.c: 101:         }
  2004                           
  2005                           
  2006                           ;Lab7.c: 102:         T0IF = 0;
  2007     0FEE  110B               	bcf	11,2	;volatile
  2008     0FEF                     i1l2181:
  2009                           
  2010                           ;Lab7.c: 103:         TMR0 = TMR0_Pre;
  2011     0FEF  1683               	bsf	3,5	;RP0=1, select bank1
  2012     0FF0  1303               	bcf	3,6	;RP1=0, select bank1
  2013     0FF1  083F               	movf	_TMR0_Pre^(0+128),w
  2014     0FF2  1283               	bcf	3,5	;RP0=0, select bank0
  2015     0FF3  1303               	bcf	3,6	;RP1=0, select bank0
  2016     0FF4  0081               	movwf	1	;volatile
  2017     0FF5                     i1l82:
  2018     0FF5  1683               	bsf	3,5	;RP0=1, select bank1
  2019     0FF6  1303               	bcf	3,6	;RP1=0, select bank1
  2020     0FF7  082D               	movf	(??_isr+4)^(0+128),w
  2021     0FF8  00FF               	movwf	btemp+1
  2022     0FF9  082C               	movf	(??_isr+3)^(0+128),w
  2023     0FFA  008A               	movwf	10
  2024     0FFB  0E2B               	swapf	(??_isr+2)^(0+128),w
  2025     0FFC  0083               	movwf	3
  2026     0FFD  0EFE               	swapf	btemp,f
  2027     0FFE  0E7E               	swapf	btemp,w
  2028     0FFF  0009               	retfie
  2029     1000                     __end_of_isr:
  2030                           
  2031                           	psect	intentry
  2032     0004                     __pintentry:	
  2033                           ;incstack = 0
  2034                           ; Regs used in _isr: [wreg+status,2+status,0+btemp+1+pclath+cstack]
  2035                           
  2036     0004                     interrupt_function:
  2037     007E                     saved_w	set	btemp
  2038     0004  00FE               	movwf	btemp
  2039     0005  0E03               	swapf	3,w
  2040     0006  1683               	bsf	3,5	;RP0=1, select bank1
  2041     0007  1303               	bcf	3,6	;RP1=0, select bank1
  2042     0008  00AB               	movwf	(??_isr+2)^(0+128)
  2043     0009  080A               	movf	10,w
  2044     000A  00AC               	movwf	(??_isr+3)^(0+128)
  2045     000B  087F               	movf	btemp+1,w
  2046     000C  00AD               	movwf	(??_isr+4)^(0+128)
  2047     000D  120A  158A  2F47   	ljmp	_isr
  2048                           
  2049                           	psect	text9
  2050     0DE1                     __ptext9:	
  2051 ;; *************** function _map *****************
  2052 ;; Defined at:
  2053 ;;		line 3 in file "Map.c"
  2054 ;; Parameters:    Size  Location     Type
  2055 ;;  x               1    wreg     unsigned char 
  2056 ;;  x0              1    2[BANK1 ] unsigned char 
  2057 ;;  x1              1    3[BANK1 ] unsigned char 
  2058 ;;  y0              2    4[BANK1 ] unsigned short 
  2059 ;;  y1              2    6[BANK1 ] unsigned short 
  2060 ;; Auto vars:     Size  Location     Type
  2061 ;;  x               1    8[BANK1 ] unsigned char 
  2062 ;; Return value:  Size  Location     Type
  2063 ;;                  2    2[BANK1 ] unsigned short 
  2064 ;; Registers used:
  2065 ;;		wreg, status,2, status,0, btemp+1, pclath, cstack
  2066 ;; Tracked objects:
  2067 ;;		On entry : 0/0
  2068 ;;		On exit  : 0/0
  2069 ;;		Unchanged: 0/0
  2070 ;; Data sizes:     COMMON   BANK0   BANK1   BANK3   BANK2
  2071 ;;      Params:         0       0       6       0       0
  2072 ;;      Locals:         0       0       1       0       0
  2073 ;;      Temps:          0       0       0       0       0
  2074 ;;      Totals:         0       0       7       0       0
  2075 ;;Total ram usage:        7 bytes
  2076 ;; Hardware stack levels used: 1
  2077 ;; Hardware stack levels required when called: 2
  2078 ;; This function calls:
  2079 ;;		___fladd
  2080 ;;		___fldiv
  2081 ;;		___flmul
  2082 ;;		___fltol
  2083 ;;		___xxtofl
  2084 ;; This function is called by:
  2085 ;;		_isr
  2086 ;; This function uses a non-reentrant model
  2087 ;;
  2088                           
  2089     0DE1                     _map:	
  2090                           ;psect for function _map
  2091                           
  2092                           
  2093                           ;incstack = 0
  2094                           ; Regs used in _map: [wreg+status,2+status,0+btemp+1+pclath+cstack]
  2095                           ;map@x stored from wreg
  2096     0DE1  1683               	bsf	3,5	;RP0=1, select bank1
  2097     0DE2  1303               	bcf	3,6	;RP1=0, select bank1
  2098     0DE3  00A8               	movwf	map@x^(0+128)
  2099     0DE4                     i1l2061:
  2100                           
  2101                           ;Map.c: 3: unsigned short map(uint8_t x, uint8_t x0, uint8_t x1,unsigned short y0, unsig
      +                          ned short y1);Map.c: 4: {;Map.c: 5:     return (unsigned short)(y0+((float)(y1-y0)/(x1-x
      +                          0))*(x-x0));
  2102     0DE4  0824               	movf	map@y0^(0+128),w
  2103     0DE5  00F0               	movwf	___xxtofl@val
  2104     0DE6  0825               	movf	(map@y0+1)^(0+128),w
  2105     0DE7  00F1               	movwf	___xxtofl@val+1
  2106     0DE8  01F2               	clrf	___xxtofl@val+2
  2107     0DE9  01F3               	clrf	___xxtofl@val+3
  2108     0DEA  3000               	movlw	0
  2109     0DEB  120A  158A  268F  120A  158A  	fcall	___xxtofl
  2110     0DF0  0873               	movf	?___xxtofl+3,w
  2111     0DF1  1283               	bcf	3,5	;RP0=0, select bank0
  2112     0DF2  1303               	bcf	3,6	;RP1=0, select bank0
  2113     0DF3  00DB               	movwf	___fladd@a+3
  2114     0DF4  0872               	movf	?___xxtofl+2,w
  2115     0DF5  00DA               	movwf	___fladd@a+2
  2116     0DF6  0871               	movf	?___xxtofl+1,w
  2117     0DF7  00D9               	movwf	___fladd@a+1
  2118     0DF8  0870               	movf	?___xxtofl,w
  2119     0DF9  00D8               	movwf	___fladd@a
  2120     0DFA  1683               	bsf	3,5	;RP0=1, select bank1
  2121     0DFB  1303               	bcf	3,6	;RP1=0, select bank1
  2122     0DFC  0824               	movf	map@y0^(0+128),w
  2123     0DFD  0226               	subwf	map@y1^(0+128),w
  2124     0DFE  00F0               	movwf	___xxtofl@val
  2125     0DFF  0825               	movf	(map@y0+1)^(0+128),w
  2126     0E00  1C03               	skipc
  2127     0E01  0A25               	incf	(map@y0+1)^(0+128),w
  2128     0E02  0227               	subwf	(map@y1+1)^(0+128),w
  2129     0E03  00F1               	movwf	___xxtofl@val+1
  2130     0E04  01F2               	clrf	___xxtofl@val+2
  2131     0E05  01F3               	clrf	___xxtofl@val+3
  2132     0E06  3000               	movlw	0
  2133     0E07  120A  158A  268F  120A  158A  	fcall	___xxtofl
  2134     0E0C  0873               	movf	?___xxtofl+3,w
  2135     0E0D  1283               	bcf	3,5	;RP0=0, select bank0
  2136     0E0E  1303               	bcf	3,6	;RP1=0, select bank0
  2137     0E0F  00A7               	movwf	___fldiv@b+3
  2138     0E10  0872               	movf	?___xxtofl+2,w
  2139     0E11  00A6               	movwf	___fldiv@b+2
  2140     0E12  0871               	movf	?___xxtofl+1,w
  2141     0E13  00A5               	movwf	___fldiv@b+1
  2142     0E14  0870               	movf	?___xxtofl,w
  2143     0E15  00A4               	movwf	___fldiv@b
  2144     0E16  1683               	bsf	3,5	;RP0=1, select bank1
  2145     0E17  1303               	bcf	3,6	;RP1=0, select bank1
  2146     0E18  0822               	movf	map@x0^(0+128),w
  2147     0E19  0223               	subwf	map@x1^(0+128),w
  2148     0E1A  00F0               	movwf	___xxtofl@val
  2149     0E1B  01F1               	clrf	___xxtofl@val+1
  2150     0E1C  1C03               	skipc
  2151     0E1D  03F1               	decf	___xxtofl@val+1,f
  2152     0E1E  01F2               	clrf	___xxtofl@val+2
  2153     0E1F  1BF1               	btfsc	___xxtofl@val+1,7
  2154     0E20  03F2               	decf	___xxtofl@val+2,f
  2155     0E21  0872               	movf	___xxtofl@val+2,w
  2156     0E22  00F3               	movwf	___xxtofl@val+3
  2157     0E23  3001               	movlw	1
  2158     0E24  120A  158A  268F  120A  158A  	fcall	___xxtofl
  2159     0E29  0873               	movf	?___xxtofl+3,w
  2160     0E2A  1283               	bcf	3,5	;RP0=0, select bank0
  2161     0E2B  1303               	bcf	3,6	;RP1=0, select bank0
  2162     0E2C  00A3               	movwf	___fldiv@a+3
  2163     0E2D  0872               	movf	?___xxtofl+2,w
  2164     0E2E  00A2               	movwf	___fldiv@a+2
  2165     0E2F  0871               	movf	?___xxtofl+1,w
  2166     0E30  00A1               	movwf	___fldiv@a+1
  2167     0E31  0870               	movf	?___xxtofl,w
  2168     0E32  00A0               	movwf	___fldiv@a
  2169     0E33  120A  118A  25C8  120A  158A  	fcall	___fldiv
  2170     0E38  1283               	bcf	3,5	;RP0=0, select bank0
  2171     0E39  1303               	bcf	3,6	;RP1=0, select bank0
  2172     0E3A  0823               	movf	?___fldiv+3,w
  2173     0E3B  00C1               	movwf	___flmul@a+3
  2174     0E3C  0822               	movf	?___fldiv+2,w
  2175     0E3D  00C0               	movwf	___flmul@a+2
  2176     0E3E  0821               	movf	?___fldiv+1,w
  2177     0E3F  00BF               	movwf	___flmul@a+1
  2178     0E40  0820               	movf	?___fldiv,w
  2179     0E41  00BE               	movwf	___flmul@a
  2180     0E42  1683               	bsf	3,5	;RP0=1, select bank1
  2181     0E43  1303               	bcf	3,6	;RP1=0, select bank1
  2182     0E44  0822               	movf	map@x0^(0+128),w
  2183     0E45  0228               	subwf	map@x^(0+128),w
  2184     0E46  00F0               	movwf	___xxtofl@val
  2185     0E47  01F1               	clrf	___xxtofl@val+1
  2186     0E48  1C03               	skipc
  2187     0E49  03F1               	decf	___xxtofl@val+1,f
  2188     0E4A  01F2               	clrf	___xxtofl@val+2
  2189     0E4B  1BF1               	btfsc	___xxtofl@val+1,7
  2190     0E4C  03F2               	decf	___xxtofl@val+2,f
  2191     0E4D  0872               	movf	___xxtofl@val+2,w
  2192     0E4E  00F3               	movwf	___xxtofl@val+3
  2193     0E4F  3001               	movlw	1
  2194     0E50  120A  158A  268F  120A  158A  	fcall	___xxtofl
  2195     0E55  0873               	movf	?___xxtofl+3,w
  2196     0E56  1283               	bcf	3,5	;RP0=0, select bank0
  2197     0E57  1303               	bcf	3,6	;RP1=0, select bank0
  2198     0E58  00BD               	movwf	___flmul@b+3
  2199     0E59  0872               	movf	?___xxtofl+2,w
  2200     0E5A  00BC               	movwf	___flmul@b+2
  2201     0E5B  0871               	movf	?___xxtofl+1,w
  2202     0E5C  00BB               	movwf	___flmul@b+1
  2203     0E5D  0870               	movf	?___xxtofl,w
  2204     0E5E  00BA               	movwf	___flmul@b
  2205     0E5F  120A  118A  202B  120A  158A  	fcall	___flmul
  2206     0E64  1283               	bcf	3,5	;RP0=0, select bank0
  2207     0E65  1303               	bcf	3,6	;RP1=0, select bank0
  2208     0E66  083D               	movf	?___flmul+3,w
  2209     0E67  00D7               	movwf	___fladd@b+3
  2210     0E68  083C               	movf	?___flmul+2,w
  2211     0E69  00D6               	movwf	___fladd@b+2
  2212     0E6A  083B               	movf	?___flmul+1,w
  2213     0E6B  00D5               	movwf	___fladd@b+1
  2214     0E6C  083A               	movf	?___flmul,w
  2215     0E6D  00D4               	movwf	___fladd@b
  2216     0E6E  120A  118A  2370  120A  158A  	fcall	___fladd
  2217     0E73  1283               	bcf	3,5	;RP0=0, select bank0
  2218     0E74  1303               	bcf	3,6	;RP1=0, select bank0
  2219     0E75  0857               	movf	?___fladd+3,w
  2220     0E76  00EB               	movwf	___fltol@f1+3
  2221     0E77  0856               	movf	?___fladd+2,w
  2222     0E78  00EA               	movwf	___fltol@f1+2
  2223     0E79  0855               	movf	?___fladd+1,w
  2224     0E7A  00E9               	movwf	___fltol@f1+1
  2225     0E7B  0854               	movf	?___fladd,w
  2226     0E7C  00E8               	movwf	___fltol@f1
  2227     0E7D  120A  158A  2553  120A  158A  	fcall	___fltol
  2228     0E82  1283               	bcf	3,5	;RP0=0, select bank0
  2229     0E83  1303               	bcf	3,6	;RP1=0, select bank0
  2230     0E84  0869               	movf	?___fltol+1,w
  2231     0E85  1683               	bsf	3,5	;RP0=1, select bank1
  2232     0E86  1303               	bcf	3,6	;RP1=0, select bank1
  2233     0E87  00A3               	movwf	(?_map+1)^(0+128)
  2234     0E88  1283               	bcf	3,5	;RP0=0, select bank0
  2235     0E89  1303               	bcf	3,6	;RP1=0, select bank0
  2236     0E8A  0868               	movf	?___fltol,w
  2237     0E8B  1683               	bsf	3,5	;RP0=1, select bank1
  2238     0E8C  1303               	bcf	3,6	;RP1=0, select bank1
  2239     0E8D  00A2               	movwf	?_map^(0+128)
  2240     0E8E                     i1l167:
  2241     0E8E  0008               	return
  2242     0E8F                     __end_of_map:
  2243                           
  2244                           	psect	text10
  2245     0E8F                     __ptext10:	
  2246 ;; *************** function ___xxtofl *****************
  2247 ;; Defined at:
  2248 ;;		line 10 in file "C:\Program Files\Microchip\xc8\v2.40\pic\sources\c90\common\xxtofl.c"
  2249 ;; Parameters:    Size  Location     Type
  2250 ;;  sign            1    wreg     unsigned char 
  2251 ;;  val             4    0[COMMON] long 
  2252 ;; Auto vars:     Size  Location     Type
  2253 ;;  sign            1    8[COMMON] unsigned char 
  2254 ;;  arg             4   10[COMMON] unsigned long 
  2255 ;;  exp             1    9[COMMON] unsigned char 
  2256 ;; Return value:  Size  Location     Type
  2257 ;;                  4    0[COMMON] unsigned char 
  2258 ;; Registers used:
  2259 ;;		wreg, status,2, status,0
  2260 ;; Tracked objects:
  2261 ;;		On entry : 0/0
  2262 ;;		On exit  : 0/0
  2263 ;;		Unchanged: 0/0
  2264 ;; Data sizes:     COMMON   BANK0   BANK1   BANK3   BANK2
  2265 ;;      Params:         4       0       0       0       0
  2266 ;;      Locals:         6       0       0       0       0
  2267 ;;      Temps:          4       0       0       0       0
  2268 ;;      Totals:        14       0       0       0       0
  2269 ;;Total ram usage:       14 bytes
  2270 ;; Hardware stack levels used: 1
  2271 ;; This function calls:
  2272 ;;		Nothing
  2273 ;; This function is called by:
  2274 ;;		_map
  2275 ;; This function uses a non-reentrant model
  2276 ;;
  2277                           
  2278     0E8F                     ___xxtofl:	
  2279                           ;psect for function ___xxtofl
  2280                           
  2281                           
  2282                           ;incstack = 0
  2283                           ; Regs used in ___xxtofl: [wreg+status,2+status,0]
  2284                           ;___xxtofl@sign stored from wreg
  2285     0E8F  00F8               	movwf	___xxtofl@sign
  2286     0E90                     i1l2017:
  2287     0E90  0878               	movf	___xxtofl@sign,w
  2288     0E91  1903               	btfsc	3,2
  2289     0E92  2E94               	goto	u282_21
  2290     0E93  2E95               	goto	u282_20
  2291     0E94                     u282_21:
  2292     0E94  2EA9               	goto	i1l2023
  2293     0E95                     u282_20:
  2294     0E95                     i1l2019:
  2295     0E95  1FF3               	btfss	___xxtofl@val+3,7
  2296     0E96  2E98               	goto	u283_21
  2297     0E97  2E99               	goto	u283_20
  2298     0E98                     u283_21:
  2299     0E98  2EA9               	goto	i1l2023
  2300     0E99                     u283_20:
  2301     0E99                     i1l2021:
  2302     0E99  0970               	comf	___xxtofl@val,w
  2303     0E9A  00FA               	movwf	___xxtofl@arg
  2304     0E9B  0971               	comf	___xxtofl@val+1,w
  2305     0E9C  00FB               	movwf	___xxtofl@arg+1
  2306     0E9D  0972               	comf	___xxtofl@val+2,w
  2307     0E9E  00FC               	movwf	___xxtofl@arg+2
  2308     0E9F  0973               	comf	___xxtofl@val+3,w
  2309     0EA0  00FD               	movwf	___xxtofl@arg+3
  2310     0EA1  0AFA               	incf	___xxtofl@arg,f
  2311     0EA2  1903               	skipnz
  2312     0EA3  0AFB               	incf	___xxtofl@arg+1,f
  2313     0EA4  1903               	skipnz
  2314     0EA5  0AFC               	incf	___xxtofl@arg+2,f
  2315     0EA6  1903               	skipnz
  2316     0EA7  0AFD               	incf	___xxtofl@arg+3,f
  2317     0EA8  2EB1               	goto	i1l686
  2318     0EA9                     i1l2023:
  2319     0EA9  0873               	movf	___xxtofl@val+3,w
  2320     0EAA  00FD               	movwf	___xxtofl@arg+3
  2321     0EAB  0872               	movf	___xxtofl@val+2,w
  2322     0EAC  00FC               	movwf	___xxtofl@arg+2
  2323     0EAD  0871               	movf	___xxtofl@val+1,w
  2324     0EAE  00FB               	movwf	___xxtofl@arg+1
  2325     0EAF  0870               	movf	___xxtofl@val,w
  2326     0EB0  00FA               	movwf	___xxtofl@arg
  2327     0EB1                     i1l686:
  2328     0EB1  0873               	movf	___xxtofl@val+3,w
  2329     0EB2  0472               	iorwf	___xxtofl@val+2,w
  2330     0EB3  0471               	iorwf	___xxtofl@val+1,w
  2331     0EB4  0470               	iorwf	___xxtofl@val,w
  2332     0EB5  1D03               	skipz
  2333     0EB6  2EB8               	goto	u284_21
  2334     0EB7  2EB9               	goto	u284_20
  2335     0EB8                     u284_21:
  2336     0EB8  2EC2               	goto	i1l2029
  2337     0EB9                     u284_20:
  2338     0EB9                     i1l2025:
  2339     0EB9  3000               	movlw	0
  2340     0EBA  00F3               	movwf	?___xxtofl+3
  2341     0EBB  3000               	movlw	0
  2342     0EBC  00F2               	movwf	?___xxtofl+2
  2343     0EBD  3000               	movlw	0
  2344     0EBE  00F1               	movwf	?___xxtofl+1
  2345     0EBF  3000               	movlw	0
  2346     0EC0  00F0               	movwf	?___xxtofl
  2347     0EC1  2F46               	goto	i1l688
  2348     0EC2                     i1l2029:
  2349     0EC2  3096               	movlw	150
  2350     0EC3  00F9               	movwf	___xxtofl@exp
  2351     0EC4  2ED2               	goto	i1l2033
  2352     0EC5                     i1l2031:
  2353     0EC5  3001               	movlw	1
  2354     0EC6  00F4               	movwf	??___xxtofl
  2355     0EC7  0874               	movf	??___xxtofl,w
  2356     0EC8  07F9               	addwf	___xxtofl@exp,f
  2357     0EC9  3001               	movlw	1
  2358     0ECA                     u285_25:
  2359     0ECA  1003               	clrc
  2360     0ECB  0CFD               	rrf	___xxtofl@arg+3,f
  2361     0ECC  0CFC               	rrf	___xxtofl@arg+2,f
  2362     0ECD  0CFB               	rrf	___xxtofl@arg+1,f
  2363     0ECE  0CFA               	rrf	___xxtofl@arg,f
  2364     0ECF  3EFF               	addlw	-1
  2365     0ED0  1D03               	skipz
  2366     0ED1  2ECA               	goto	u285_25
  2367     0ED2                     i1l2033:
  2368     0ED2  30FE               	movlw	254
  2369     0ED3  057D               	andwf	___xxtofl@arg+3,w
  2370     0ED4  1D03               	btfss	3,2
  2371     0ED5  2ED7               	goto	u286_21
  2372     0ED6  2ED8               	goto	u286_20
  2373     0ED7                     u286_21:
  2374     0ED7  2EC5               	goto	i1l2031
  2375     0ED8                     u286_20:
  2376     0ED8  2EF4               	goto	i1l692
  2377     0ED9                     i1l2035:
  2378     0ED9  3001               	movlw	1
  2379     0EDA  00F4               	movwf	??___xxtofl
  2380     0EDB  0874               	movf	??___xxtofl,w
  2381     0EDC  07F9               	addwf	___xxtofl@exp,f
  2382     0EDD                     i1l2037:
  2383     0EDD  3001               	movlw	1
  2384     0EDE  07FA               	addwf	___xxtofl@arg,f
  2385     0EDF  3000               	movlw	0
  2386     0EE0  1803               	skipnc
  2387     0EE1  3001               	movlw	1
  2388     0EE2  07FB               	addwf	___xxtofl@arg+1,f
  2389     0EE3  3000               	movlw	0
  2390     0EE4  1803               	skipnc
  2391     0EE5  3001               	movlw	1
  2392     0EE6  07FC               	addwf	___xxtofl@arg+2,f
  2393     0EE7  3000               	movlw	0
  2394     0EE8  1803               	skipnc
  2395     0EE9  3001               	movlw	1
  2396     0EEA  07FD               	addwf	___xxtofl@arg+3,f
  2397     0EEB                     i1l2039:
  2398     0EEB  3001               	movlw	1
  2399     0EEC                     u287_25:
  2400     0EEC  1003               	clrc
  2401     0EED  0CFD               	rrf	___xxtofl@arg+3,f
  2402     0EEE  0CFC               	rrf	___xxtofl@arg+2,f
  2403     0EEF  0CFB               	rrf	___xxtofl@arg+1,f
  2404     0EF0  0CFA               	rrf	___xxtofl@arg,f
  2405     0EF1  3EFF               	addlw	-1
  2406     0EF2  1D03               	skipz
  2407     0EF3  2EEC               	goto	u287_25
  2408     0EF4                     i1l692:
  2409     0EF4  30FF               	movlw	255
  2410     0EF5  057D               	andwf	___xxtofl@arg+3,w
  2411     0EF6  1D03               	btfss	3,2
  2412     0EF7  2EF9               	goto	u288_21
  2413     0EF8  2EFA               	goto	u288_20
  2414     0EF9                     u288_21:
  2415     0EF9  2ED9               	goto	i1l2035
  2416     0EFA                     u288_20:
  2417     0EFA  2F06               	goto	i1l2043
  2418     0EFB                     i1l2041:
  2419     0EFB  3001               	movlw	1
  2420     0EFC  02F9               	subwf	___xxtofl@exp,f
  2421     0EFD  3001               	movlw	1
  2422     0EFE  00F4               	movwf	??___xxtofl
  2423     0EFF                     u289_25:
  2424     0EFF  1003               	clrc
  2425     0F00  0DFA               	rlf	___xxtofl@arg,f
  2426     0F01  0DFB               	rlf	___xxtofl@arg+1,f
  2427     0F02  0DFC               	rlf	___xxtofl@arg+2,f
  2428     0F03  0DFD               	rlf	___xxtofl@arg+3,f
  2429     0F04  0BF4               	decfsz	??___xxtofl,f
  2430     0F05  2EFF               	goto	u289_25
  2431     0F06                     i1l2043:
  2432     0F06  1BFC               	btfsc	___xxtofl@arg+2,7
  2433     0F07  2F09               	goto	u290_21
  2434     0F08  2F0A               	goto	u290_20
  2435     0F09                     u290_21:
  2436     0F09  2F10               	goto	i1l699
  2437     0F0A                     u290_20:
  2438     0F0A                     i1l2045:
  2439     0F0A  3002               	movlw	2
  2440     0F0B  0279               	subwf	___xxtofl@exp,w
  2441     0F0C  1803               	skipnc
  2442     0F0D  2F0F               	goto	u291_21
  2443     0F0E  2F10               	goto	u291_20
  2444     0F0F                     u291_21:
  2445     0F0F  2EFB               	goto	i1l2041
  2446     0F10                     u291_20:
  2447     0F10                     i1l699:
  2448     0F10  1879               	btfsc	___xxtofl@exp,0
  2449     0F11  2F13               	goto	u292_21
  2450     0F12  2F14               	goto	u292_20
  2451     0F13                     u292_21:
  2452     0F13  2F1C               	goto	i1l700
  2453     0F14                     u292_20:
  2454     0F14                     i1l2047:
  2455     0F14  30FF               	movlw	255
  2456     0F15  05FA               	andwf	___xxtofl@arg,f
  2457     0F16  30FF               	movlw	255
  2458     0F17  05FB               	andwf	___xxtofl@arg+1,f
  2459     0F18  307F               	movlw	127
  2460     0F19  05FC               	andwf	___xxtofl@arg+2,f
  2461     0F1A  30FF               	movlw	255
  2462     0F1B  05FD               	andwf	___xxtofl@arg+3,f
  2463     0F1C                     i1l700:
  2464     0F1C  1003               	clrc
  2465     0F1D  0CF9               	rrf	___xxtofl@exp,f
  2466     0F1E                     i1l2049:
  2467     0F1E  0879               	movf	___xxtofl@exp,w
  2468     0F1F  00F4               	movwf	??___xxtofl
  2469     0F20  01F5               	clrf	??___xxtofl+1
  2470     0F21  01F6               	clrf	??___xxtofl+2
  2471     0F22  01F7               	clrf	??___xxtofl+3
  2472     0F23  3018               	movlw	24
  2473     0F24                     u293_25:
  2474     0F24  1003               	clrc
  2475     0F25  0DF4               	rlf	??___xxtofl,f
  2476     0F26  0DF5               	rlf	??___xxtofl+1,f
  2477     0F27  0DF6               	rlf	??___xxtofl+2,f
  2478     0F28  0DF7               	rlf	??___xxtofl+3,f
  2479     0F29                     u293_20:
  2480     0F29  3EFF               	addlw	-1
  2481     0F2A  1D03               	skipz
  2482     0F2B  2F24               	goto	u293_25
  2483     0F2C  0874               	movf	??___xxtofl,w
  2484     0F2D  04FA               	iorwf	___xxtofl@arg,f
  2485     0F2E  0875               	movf	??___xxtofl+1,w
  2486     0F2F  04FB               	iorwf	___xxtofl@arg+1,f
  2487     0F30  0876               	movf	??___xxtofl+2,w
  2488     0F31  04FC               	iorwf	___xxtofl@arg+2,f
  2489     0F32  0877               	movf	??___xxtofl+3,w
  2490     0F33  04FD               	iorwf	___xxtofl@arg+3,f
  2491     0F34                     i1l2051:
  2492     0F34  0878               	movf	___xxtofl@sign,w
  2493     0F35  1903               	btfsc	3,2
  2494     0F36  2F38               	goto	u294_21
  2495     0F37  2F39               	goto	u294_20
  2496     0F38                     u294_21:
  2497     0F38  2F3E               	goto	i1l2057
  2498     0F39                     u294_20:
  2499     0F39                     i1l2053:
  2500     0F39  1FF3               	btfss	___xxtofl@val+3,7
  2501     0F3A  2F3C               	goto	u295_21
  2502     0F3B  2F3D               	goto	u295_20
  2503     0F3C                     u295_21:
  2504     0F3C  2F3E               	goto	i1l2057
  2505     0F3D                     u295_20:
  2506     0F3D                     i1l2055:
  2507     0F3D  17FD               	bsf	___xxtofl@arg+3,7
  2508     0F3E                     i1l2057:
  2509     0F3E  087D               	movf	___xxtofl@arg+3,w
  2510     0F3F  00F3               	movwf	?___xxtofl+3
  2511     0F40  087C               	movf	___xxtofl@arg+2,w
  2512     0F41  00F2               	movwf	?___xxtofl+2
  2513     0F42  087B               	movf	___xxtofl@arg+1,w
  2514     0F43  00F1               	movwf	?___xxtofl+1
  2515     0F44  087A               	movf	___xxtofl@arg,w
  2516     0F45  00F0               	movwf	?___xxtofl
  2517     0F46                     i1l688:
  2518     0F46  0008               	return
  2519     0F47                     __end_of___xxtofl:
  2520                           
  2521                           	psect	text11
  2522     0D53                     __ptext11:	
  2523 ;; *************** function ___fltol *****************
  2524 ;; Defined at:
  2525 ;;		line 43 in file "C:\Program Files\Microchip\xc8\v2.40\pic\sources\c90\common\fltol.c"
  2526 ;; Parameters:    Size  Location     Type
  2527 ;;  f1              4   72[BANK0 ] unsigned char 
  2528 ;; Auto vars:     Size  Location     Type
  2529 ;;  exp1            1    1[BANK1 ] unsigned char 
  2530 ;;  sign1           1    0[BANK1 ] unsigned char 
  2531 ;; Return value:  Size  Location     Type
  2532 ;;                  4   72[BANK0 ] long 
  2533 ;; Registers used:
  2534 ;;		wreg, status,2, status,0
  2535 ;; Tracked objects:
  2536 ;;		On entry : 0/0
  2537 ;;		On exit  : 0/0
  2538 ;;		Unchanged: 0/0
  2539 ;; Data sizes:     COMMON   BANK0   BANK1   BANK3   BANK2
  2540 ;;      Params:         0       4       0       0       0
  2541 ;;      Locals:         0       0       2       0       0
  2542 ;;      Temps:          0       4       0       0       0
  2543 ;;      Totals:         0       8       2       0       0
  2544 ;;Total ram usage:       10 bytes
  2545 ;; Hardware stack levels used: 1
  2546 ;; This function calls:
  2547 ;;		Nothing
  2548 ;; This function is called by:
  2549 ;;		_map
  2550 ;; This function uses a non-reentrant model
  2551 ;;
  2552                           
  2553     0D53                     ___fltol:	
  2554                           ;psect for function ___fltol
  2555                           
  2556     0D53                     i1l1505:	
  2557                           ;incstack = 0
  2558                           ; Regs used in ___fltol: [wreg+status,2+status,0]
  2559                           
  2560     0D53  1003               	clrc
  2561     0D54  1283               	bcf	3,5	;RP0=0, select bank0
  2562     0D55  1303               	bcf	3,6	;RP1=0, select bank0
  2563     0D56  0D6A               	rlf	___fltol@f1+2,w
  2564     0D57  0D6B               	rlf	___fltol@f1+3,w
  2565     0D58  1683               	bsf	3,5	;RP0=1, select bank1
  2566     0D59  1303               	bcf	3,6	;RP1=0, select bank1
  2567     0D5A  00A1               	movwf	___fltol@exp1^(0+128)
  2568     0D5B  0821               	movf	___fltol@exp1^(0+128),w
  2569     0D5C  1D03               	btfss	3,2
  2570     0D5D  2D5F               	goto	u160_21
  2571     0D5E  2D60               	goto	u160_20
  2572     0D5F                     u160_21:
  2573     0D5F  2D6B               	goto	i1l1511
  2574     0D60                     u160_20:
  2575     0D60                     i1l1507:
  2576     0D60  3000               	movlw	0
  2577     0D61  1283               	bcf	3,5	;RP0=0, select bank0
  2578     0D62  1303               	bcf	3,6	;RP1=0, select bank0
  2579     0D63  00EB               	movwf	?___fltol+3
  2580     0D64  3000               	movlw	0
  2581     0D65  00EA               	movwf	?___fltol+2
  2582     0D66  3000               	movlw	0
  2583     0D67  00E9               	movwf	?___fltol+1
  2584     0D68  3000               	movlw	0
  2585     0D69  00E8               	movwf	?___fltol
  2586     0D6A  2DE0               	goto	i1l439
  2587     0D6B                     i1l1511:
  2588     0D6B  1283               	bcf	3,5	;RP0=0, select bank0
  2589     0D6C  1303               	bcf	3,6	;RP1=0, select bank0
  2590     0D6D  0868               	movf	___fltol@f1,w
  2591     0D6E  00EC               	movwf	??___fltol
  2592     0D6F  0869               	movf	___fltol@f1+1,w
  2593     0D70  00ED               	movwf	??___fltol+1
  2594     0D71  086A               	movf	___fltol@f1+2,w
  2595     0D72  00EE               	movwf	??___fltol+2
  2596     0D73  086B               	movf	___fltol@f1+3,w
  2597     0D74  00EF               	movwf	??___fltol+3
  2598     0D75  301F               	movlw	31
  2599     0D76                     u161_25:
  2600     0D76  1003               	clrc
  2601     0D77  0CEF               	rrf	??___fltol+3,f
  2602     0D78  0CEE               	rrf	??___fltol+2,f
  2603     0D79  0CED               	rrf	??___fltol+1,f
  2604     0D7A  0CEC               	rrf	??___fltol,f
  2605     0D7B                     u161_20:
  2606     0D7B  3EFF               	addlw	-1
  2607     0D7C  1D03               	skipz
  2608     0D7D  2D76               	goto	u161_25
  2609     0D7E  086C               	movf	??___fltol,w
  2610     0D7F  1683               	bsf	3,5	;RP0=1, select bank1
  2611     0D80  1303               	bcf	3,6	;RP1=0, select bank1
  2612     0D81  00A0               	movwf	___fltol@sign1^(0+128)
  2613     0D82                     i1l1513:
  2614     0D82  1283               	bcf	3,5	;RP0=0, select bank0
  2615     0D83  1303               	bcf	3,6	;RP1=0, select bank0
  2616     0D84  17EA               	bsf	___fltol@f1+2,7
  2617     0D85                     i1l1515:
  2618     0D85  30FF               	movlw	255
  2619     0D86  05E8               	andwf	___fltol@f1,f
  2620     0D87  30FF               	movlw	255
  2621     0D88  05E9               	andwf	___fltol@f1+1,f
  2622     0D89  30FF               	movlw	255
  2623     0D8A  05EA               	andwf	___fltol@f1+2,f
  2624     0D8B  3000               	movlw	0
  2625     0D8C  05EB               	andwf	___fltol@f1+3,f
  2626     0D8D                     i1l1517:
  2627     0D8D  3096               	movlw	150
  2628     0D8E  1683               	bsf	3,5	;RP0=1, select bank1
  2629     0D8F  1303               	bcf	3,6	;RP1=0, select bank1
  2630     0D90  02A1               	subwf	___fltol@exp1^(0+128),f
  2631     0D91                     i1l1519:
  2632     0D91  1FA1               	btfss	___fltol@exp1^(0+128),7
  2633     0D92  2D94               	goto	u162_21
  2634     0D93  2D95               	goto	u162_20
  2635     0D94                     u162_21:
  2636     0D94  2DB3               	goto	i1l1529
  2637     0D95                     u162_20:
  2638     0D95                     i1l1521:
  2639     0D95  0821               	movf	___fltol@exp1^(0+128),w
  2640     0D96  3A80               	xorlw	128
  2641     0D97  3E97               	addlw	151
  2642     0D98  1803               	skipnc
  2643     0D99  2D9B               	goto	u163_21
  2644     0D9A  2D9C               	goto	u163_20
  2645     0D9B                     u163_21:
  2646     0D9B  2D9D               	goto	i1l1527
  2647     0D9C                     u163_20:
  2648     0D9C  2D60               	goto	i1l1507
  2649     0D9D                     i1l1527:
  2650     0D9D  3001               	movlw	1
  2651     0D9E                     u164_25:
  2652     0D9E  1003               	clrc
  2653     0D9F  1283               	bcf	3,5	;RP0=0, select bank0
  2654     0DA0  1303               	bcf	3,6	;RP1=0, select bank0
  2655     0DA1  0CEB               	rrf	___fltol@f1+3,f
  2656     0DA2  0CEA               	rrf	___fltol@f1+2,f
  2657     0DA3  0CE9               	rrf	___fltol@f1+1,f
  2658     0DA4  0CE8               	rrf	___fltol@f1,f
  2659     0DA5  3EFF               	addlw	-1
  2660     0DA6  1D03               	skipz
  2661     0DA7  2D9E               	goto	u164_25
  2662     0DA8  3001               	movlw	1
  2663     0DA9  00EC               	movwf	??___fltol
  2664     0DAA  086C               	movf	??___fltol,w
  2665     0DAB  1683               	bsf	3,5	;RP0=1, select bank1
  2666     0DAC  1303               	bcf	3,6	;RP1=0, select bank1
  2667     0DAD  07A1               	addwf	___fltol@exp1^(0+128),f
  2668     0DAE  1D03               	btfss	3,2
  2669     0DAF  2DB1               	goto	u165_21
  2670     0DB0  2DB2               	goto	u165_20
  2671     0DB1                     u165_21:
  2672     0DB1  2D9D               	goto	i1l1527
  2673     0DB2                     u165_20:
  2674     0DB2  2DCE               	goto	i1l1537
  2675     0DB3                     i1l1529:
  2676     0DB3  3020               	movlw	32
  2677     0DB4  0221               	subwf	___fltol@exp1^(0+128),w
  2678     0DB5  1C03               	skipc
  2679     0DB6  2DB8               	goto	u166_21
  2680     0DB7  2DB9               	goto	u166_20
  2681     0DB8                     u166_21:
  2682     0DB8  2DC9               	goto	i1l446
  2683     0DB9                     u166_20:
  2684     0DB9  2D60               	goto	i1l1507
  2685     0DBA                     i1l1535:
  2686     0DBA  3001               	movlw	1
  2687     0DBB  1283               	bcf	3,5	;RP0=0, select bank0
  2688     0DBC  1303               	bcf	3,6	;RP1=0, select bank0
  2689     0DBD  00EC               	movwf	??___fltol
  2690     0DBE                     u167_25:
  2691     0DBE  1003               	clrc
  2692     0DBF  0DE8               	rlf	___fltol@f1,f
  2693     0DC0  0DE9               	rlf	___fltol@f1+1,f
  2694     0DC1  0DEA               	rlf	___fltol@f1+2,f
  2695     0DC2  0DEB               	rlf	___fltol@f1+3,f
  2696     0DC3  0BEC               	decfsz	??___fltol,f
  2697     0DC4  2DBE               	goto	u167_25
  2698     0DC5  3001               	movlw	1
  2699     0DC6  1683               	bsf	3,5	;RP0=1, select bank1
  2700     0DC7  1303               	bcf	3,6	;RP1=0, select bank1
  2701     0DC8  02A1               	subwf	___fltol@exp1^(0+128),f
  2702     0DC9                     i1l446:
  2703     0DC9  0821               	movf	___fltol@exp1^(0+128),w
  2704     0DCA  1D03               	btfss	3,2
  2705     0DCB  2DCD               	goto	u168_21
  2706     0DCC  2DCE               	goto	u168_20
  2707     0DCD                     u168_21:
  2708     0DCD  2DBA               	goto	i1l1535
  2709     0DCE                     u168_20:
  2710     0DCE                     i1l1537:
  2711     0DCE  0820               	movf	___fltol@sign1^(0+128),w
  2712     0DCF  1903               	btfsc	3,2
  2713     0DD0  2DD2               	goto	u169_21
  2714     0DD1  2DD3               	goto	u169_20
  2715     0DD2                     u169_21:
  2716     0DD2  2DE0               	goto	i1l449
  2717     0DD3                     u169_20:
  2718     0DD3                     i1l1539:
  2719     0DD3  1283               	bcf	3,5	;RP0=0, select bank0
  2720     0DD4  1303               	bcf	3,6	;RP1=0, select bank0
  2721     0DD5  09E8               	comf	___fltol@f1,f
  2722     0DD6  09E9               	comf	___fltol@f1+1,f
  2723     0DD7  09EA               	comf	___fltol@f1+2,f
  2724     0DD8  09EB               	comf	___fltol@f1+3,f
  2725     0DD9  0AE8               	incf	___fltol@f1,f
  2726     0DDA  1903               	skipnz
  2727     0DDB  0AE9               	incf	___fltol@f1+1,f
  2728     0DDC  1903               	skipnz
  2729     0DDD  0AEA               	incf	___fltol@f1+2,f
  2730     0DDE  1903               	skipnz
  2731     0DDF  0AEB               	incf	___fltol@f1+3,f
  2732     0DE0                     i1l449:
  2733     0DE0                     i1l439:
  2734     0DE0  0008               	return
  2735     0DE1                     __end_of___fltol:
  2736                           
  2737                           	psect	text12
  2738     002B                     __ptext12:	
  2739 ;; *************** function ___flmul *****************
  2740 ;; Defined at:
  2741 ;;		line 8 in file "C:\Program Files\Microchip\xc8\v2.40\pic\sources\c90\common\sprcmul.c"
  2742 ;; Parameters:    Size  Location     Type
  2743 ;;  b               4   26[BANK0 ] long 
  2744 ;;  a               4   30[BANK0 ] long 
  2745 ;; Auto vars:     Size  Location     Type
  2746 ;;  prod            4   46[BANK0 ] struct .
  2747 ;;  grs             4   40[BANK0 ] unsigned long 
  2748 ;;  temp            2   50[BANK0 ] struct .
  2749 ;;  bexp            1   45[BANK0 ] unsigned char 
  2750 ;;  aexp            1   44[BANK0 ] unsigned char 
  2751 ;;  sign            1   39[BANK0 ] unsigned char 
  2752 ;; Return value:  Size  Location     Type
  2753 ;;                  4   26[BANK0 ] unsigned char 
  2754 ;; Registers used:
  2755 ;;		wreg, status,2, status,0, btemp+1, pclath, cstack
  2756 ;; Tracked objects:
  2757 ;;		On entry : 0/0
  2758 ;;		On exit  : 0/0
  2759 ;;		Unchanged: 0/0
  2760 ;; Data sizes:     COMMON   BANK0   BANK1   BANK3   BANK2
  2761 ;;      Params:         0       8       0       0       0
  2762 ;;      Locals:         0      13       0       0       0
  2763 ;;      Temps:          0       5       0       0       0
  2764 ;;      Totals:         0      26       0       0       0
  2765 ;;Total ram usage:       26 bytes
  2766 ;; Hardware stack levels used: 1
  2767 ;; Hardware stack levels required when called: 1
  2768 ;; This function calls:
  2769 ;;		__Umul8_16
  2770 ;; This function is called by:
  2771 ;;		_map
  2772 ;; This function uses a non-reentrant model
  2773 ;;
  2774                           
  2775     002B                     ___flmul:	
  2776                           ;psect for function ___flmul
  2777                           
  2778     002B                     i1l1877:	
  2779                           ;incstack = 0
  2780                           ; Regs used in ___flmul: [wreg+status,2+status,0+btemp+1+pclath+cstack]
  2781                           
  2782     002B  1283               	bcf	3,5	;RP0=0, select bank0
  2783     002C  1303               	bcf	3,6	;RP1=0, select bank0
  2784     002D  083D               	movf	___flmul@b+3,w
  2785     002E  3980               	andlw	128
  2786     002F  00C7               	movwf	___flmul@sign
  2787     0030                     i1l1879:
  2788     0030  083D               	movf	___flmul@b+3,w
  2789     0031  00C2               	movwf	??___flmul
  2790     0032  0742               	addwf	??___flmul,w
  2791     0033  00CD               	movwf	___flmul@bexp
  2792     0034                     i1l1881:
  2793     0034  1FBC               	btfss	___flmul@b+2,7
  2794     0035  2837               	goto	u245_21
  2795     0036  2838               	goto	u245_20
  2796     0037                     u245_21:
  2797     0037  2839               	goto	i1l1885
  2798     0038                     u245_20:
  2799     0038                     i1l1883:
  2800     0038  144D               	bsf	___flmul@bexp,0
  2801     0039                     i1l1885:
  2802     0039  084D               	movf	___flmul@bexp,w
  2803     003A  1903               	btfsc	3,2
  2804     003B  283D               	goto	u246_21
  2805     003C  283E               	goto	u246_20
  2806     003D                     u246_21:
  2807     003D  284D               	goto	i1l1893
  2808     003E                     u246_20:
  2809     003E                     i1l1887:
  2810     003E  0A4D               	incf	___flmul@bexp,w
  2811     003F  1D03               	btfss	3,2
  2812     0040  2842               	goto	u247_21
  2813     0041  2843               	goto	u247_20
  2814     0042                     u247_21:
  2815     0042  284B               	goto	i1l1891
  2816     0043                     u247_20:
  2817     0043                     i1l1889:
  2818     0043  3000               	movlw	0
  2819     0044  00BD               	movwf	___flmul@b+3
  2820     0045  3000               	movlw	0
  2821     0046  00BC               	movwf	___flmul@b+2
  2822     0047  3000               	movlw	0
  2823     0048  00BB               	movwf	___flmul@b+1
  2824     0049  3000               	movlw	0
  2825     004A  00BA               	movwf	___flmul@b
  2826     004B                     i1l1891:
  2827     004B  17BC               	bsf	___flmul@b+2,7
  2828     004C  2855               	goto	i1l1895
  2829     004D                     i1l1893:
  2830     004D  3000               	movlw	0
  2831     004E  00BD               	movwf	___flmul@b+3
  2832     004F  3000               	movlw	0
  2833     0050  00BC               	movwf	___flmul@b+2
  2834     0051  3000               	movlw	0
  2835     0052  00BB               	movwf	___flmul@b+1
  2836     0053  3000               	movlw	0
  2837     0054  00BA               	movwf	___flmul@b
  2838     0055                     i1l1895:
  2839     0055  0841               	movf	___flmul@a+3,w
  2840     0056  3980               	andlw	128
  2841     0057  00C2               	movwf	??___flmul
  2842     0058  0842               	movf	??___flmul,w
  2843     0059  06C7               	xorwf	___flmul@sign,f
  2844     005A                     i1l1897:
  2845     005A  0841               	movf	___flmul@a+3,w
  2846     005B  00C2               	movwf	??___flmul
  2847     005C  0742               	addwf	??___flmul,w
  2848     005D  00CC               	movwf	___flmul@aexp
  2849     005E                     i1l1899:
  2850     005E  1FC0               	btfss	___flmul@a+2,7
  2851     005F  2861               	goto	u248_21
  2852     0060  2862               	goto	u248_20
  2853     0061                     u248_21:
  2854     0061  2863               	goto	i1l1903
  2855     0062                     u248_20:
  2856     0062                     i1l1901:
  2857     0062  144C               	bsf	___flmul@aexp,0
  2858     0063                     i1l1903:
  2859     0063  084C               	movf	___flmul@aexp,w
  2860     0064  1903               	btfsc	3,2
  2861     0065  2867               	goto	u249_21
  2862     0066  2868               	goto	u249_20
  2863     0067                     u249_21:
  2864     0067  2877               	goto	i1l1911
  2865     0068                     u249_20:
  2866     0068                     i1l1905:
  2867     0068  0A4C               	incf	___flmul@aexp,w
  2868     0069  1D03               	btfss	3,2
  2869     006A  286C               	goto	u250_21
  2870     006B  286D               	goto	u250_20
  2871     006C                     u250_21:
  2872     006C  2875               	goto	i1l1909
  2873     006D                     u250_20:
  2874     006D                     i1l1907:
  2875     006D  3000               	movlw	0
  2876     006E  00C1               	movwf	___flmul@a+3
  2877     006F  3000               	movlw	0
  2878     0070  00C0               	movwf	___flmul@a+2
  2879     0071  3000               	movlw	0
  2880     0072  00BF               	movwf	___flmul@a+1
  2881     0073  3000               	movlw	0
  2882     0074  00BE               	movwf	___flmul@a
  2883     0075                     i1l1909:
  2884     0075  17C0               	bsf	___flmul@a+2,7
  2885     0076  287F               	goto	i1l1913
  2886     0077                     i1l1911:
  2887     0077  3000               	movlw	0
  2888     0078  00C1               	movwf	___flmul@a+3
  2889     0079  3000               	movlw	0
  2890     007A  00C0               	movwf	___flmul@a+2
  2891     007B  3000               	movlw	0
  2892     007C  00BF               	movwf	___flmul@a+1
  2893     007D  3000               	movlw	0
  2894     007E  00BE               	movwf	___flmul@a
  2895     007F                     i1l1913:
  2896     007F  084C               	movf	___flmul@aexp,w
  2897     0080  1903               	btfsc	3,2
  2898     0081  2883               	goto	u251_21
  2899     0082  2884               	goto	u251_20
  2900     0083                     u251_21:
  2901     0083  2889               	goto	i1l1917
  2902     0084                     u251_20:
  2903     0084                     i1l1915:
  2904     0084  084D               	movf	___flmul@bexp,w
  2905     0085  1D03               	btfss	3,2
  2906     0086  2888               	goto	u252_21
  2907     0087  2889               	goto	u252_20
  2908     0088                     u252_21:
  2909     0088  2892               	goto	i1l1921
  2910     0089                     u252_20:
  2911     0089                     i1l1917:
  2912     0089  3000               	movlw	0
  2913     008A  00BD               	movwf	?___flmul+3
  2914     008B  3000               	movlw	0
  2915     008C  00BC               	movwf	?___flmul+2
  2916     008D  3000               	movlw	0
  2917     008E  00BB               	movwf	?___flmul+1
  2918     008F  3000               	movlw	0
  2919     0090  00BA               	movwf	?___flmul
  2920     0091  2B6F               	goto	i1l642
  2921     0092                     i1l1921:
  2922     0092  083A               	movf	___flmul@b,w
  2923     0093  00F0               	movwf	__Umul8_16@multiplicand
  2924     0094  0840               	movf	___flmul@a+2,w
  2925     0095  120A  158A  2412  120A  118A  	fcall	__Umul8_16
  2926     009A  0871               	movf	?__Umul8_16+1,w
  2927     009B  1283               	bcf	3,5	;RP0=0, select bank0
  2928     009C  1303               	bcf	3,6	;RP1=0, select bank0
  2929     009D  00D3               	movwf	___flmul@temp+1
  2930     009E  0870               	movf	?__Umul8_16,w
  2931     009F  00D2               	movwf	___flmul@temp
  2932     00A0                     i1l1923:
  2933     00A0  0852               	movf	___flmul@temp,w
  2934     00A1  00C2               	movwf	??___flmul
  2935     00A2  01C3               	clrf	??___flmul+1
  2936     00A3  01C4               	clrf	??___flmul+2
  2937     00A4  01C5               	clrf	??___flmul+3
  2938     00A5  0845               	movf	??___flmul+3,w
  2939     00A6  00CB               	movwf	___flmul@grs+3
  2940     00A7  0844               	movf	??___flmul+2,w
  2941     00A8  00CA               	movwf	___flmul@grs+2
  2942     00A9  0843               	movf	??___flmul+1,w
  2943     00AA  00C9               	movwf	___flmul@grs+1
  2944     00AB  0842               	movf	??___flmul,w
  2945     00AC  00C8               	movwf	___flmul@grs
  2946     00AD                     i1l1925:
  2947     00AD  0853               	movf	___flmul@temp+1,w
  2948     00AE  00C2               	movwf	??___flmul
  2949     00AF  01C3               	clrf	??___flmul+1
  2950     00B0  01C4               	clrf	??___flmul+2
  2951     00B1  01C5               	clrf	??___flmul+3
  2952     00B2  0845               	movf	??___flmul+3,w
  2953     00B3  00D1               	movwf	___flmul@prod+3
  2954     00B4  0844               	movf	??___flmul+2,w
  2955     00B5  00D0               	movwf	___flmul@prod+2
  2956     00B6  0843               	movf	??___flmul+1,w
  2957     00B7  00CF               	movwf	___flmul@prod+1
  2958     00B8  0842               	movf	??___flmul,w
  2959     00B9  00CE               	movwf	___flmul@prod
  2960     00BA  083B               	movf	___flmul@b+1,w
  2961     00BB  00F0               	movwf	__Umul8_16@multiplicand
  2962     00BC  083F               	movf	___flmul@a+1,w
  2963     00BD  120A  158A  2412  120A  118A  	fcall	__Umul8_16
  2964     00C2  0871               	movf	?__Umul8_16+1,w
  2965     00C3  1283               	bcf	3,5	;RP0=0, select bank0
  2966     00C4  1303               	bcf	3,6	;RP1=0, select bank0
  2967     00C5  00D3               	movwf	___flmul@temp+1
  2968     00C6  0870               	movf	?__Umul8_16,w
  2969     00C7  00D2               	movwf	___flmul@temp
  2970     00C8                     i1l1927:
  2971     00C8  0852               	movf	___flmul@temp,w
  2972     00C9  00C2               	movwf	??___flmul
  2973     00CA  01C3               	clrf	??___flmul+1
  2974     00CB  01C4               	clrf	??___flmul+2
  2975     00CC  01C5               	clrf	??___flmul+3
  2976     00CD  0842               	movf	??___flmul,w
  2977     00CE  07C8               	addwf	___flmul@grs,f
  2978     00CF  0843               	movf	??___flmul+1,w
  2979     00D0  1103               	clrz
  2980     00D1  1803               	skipnc
  2981     00D2  3E01               	addlw	1
  2982     00D3  1903               	skipnz
  2983     00D4  28D6               	goto	u253_21
  2984     00D5  07C9               	addwf	___flmul@grs+1,f
  2985     00D6                     u253_21:
  2986     00D6  0844               	movf	??___flmul+2,w
  2987     00D7  1103               	clrz
  2988     00D8  1803               	skipnc
  2989     00D9  3E01               	addlw	1
  2990     00DA  1903               	skipnz
  2991     00DB  28DD               	goto	u253_22
  2992     00DC  07CA               	addwf	___flmul@grs+2,f
  2993     00DD                     u253_22:
  2994     00DD  0845               	movf	??___flmul+3,w
  2995     00DE  1103               	clrz
  2996     00DF  1803               	skipnc
  2997     00E0  3E01               	addlw	1
  2998     00E1  1903               	skipnz
  2999     00E2  28E4               	goto	u253_23
  3000     00E3  07CB               	addwf	___flmul@grs+3,f
  3001     00E4                     u253_23:
  3002     00E4                     i1l1929:
  3003     00E4  0853               	movf	___flmul@temp+1,w
  3004     00E5  00C2               	movwf	??___flmul
  3005     00E6  01C3               	clrf	??___flmul+1
  3006     00E7  01C4               	clrf	??___flmul+2
  3007     00E8  01C5               	clrf	??___flmul+3
  3008     00E9  0842               	movf	??___flmul,w
  3009     00EA  07CE               	addwf	___flmul@prod,f
  3010     00EB  0843               	movf	??___flmul+1,w
  3011     00EC  1103               	clrz
  3012     00ED  1803               	skipnc
  3013     00EE  3E01               	addlw	1
  3014     00EF  1903               	skipnz
  3015     00F0  28F2               	goto	u254_21
  3016     00F1  07CF               	addwf	___flmul@prod+1,f
  3017     00F2                     u254_21:
  3018     00F2  0844               	movf	??___flmul+2,w
  3019     00F3  1103               	clrz
  3020     00F4  1803               	skipnc
  3021     00F5  3E01               	addlw	1
  3022     00F6  1903               	skipnz
  3023     00F7  28F9               	goto	u254_22
  3024     00F8  07D0               	addwf	___flmul@prod+2,f
  3025     00F9                     u254_22:
  3026     00F9  0845               	movf	??___flmul+3,w
  3027     00FA  1103               	clrz
  3028     00FB  1803               	skipnc
  3029     00FC  3E01               	addlw	1
  3030     00FD  1903               	skipnz
  3031     00FE  2900               	goto	u254_23
  3032     00FF  07D1               	addwf	___flmul@prod+3,f
  3033     0100                     u254_23:
  3034     0100  083C               	movf	___flmul@b+2,w
  3035     0101  00F0               	movwf	__Umul8_16@multiplicand
  3036     0102  083E               	movf	___flmul@a,w
  3037     0103  120A  158A  2412  120A  118A  	fcall	__Umul8_16
  3038     0108  0871               	movf	?__Umul8_16+1,w
  3039     0109  1283               	bcf	3,5	;RP0=0, select bank0
  3040     010A  1303               	bcf	3,6	;RP1=0, select bank0
  3041     010B  00D3               	movwf	___flmul@temp+1
  3042     010C  0870               	movf	?__Umul8_16,w
  3043     010D  00D2               	movwf	___flmul@temp
  3044     010E                     i1l1931:
  3045     010E  0852               	movf	___flmul@temp,w
  3046     010F  00C2               	movwf	??___flmul
  3047     0110  01C3               	clrf	??___flmul+1
  3048     0111  01C4               	clrf	??___flmul+2
  3049     0112  01C5               	clrf	??___flmul+3
  3050     0113  0842               	movf	??___flmul,w
  3051     0114  07C8               	addwf	___flmul@grs,f
  3052     0115  0843               	movf	??___flmul+1,w
  3053     0116  1103               	clrz
  3054     0117  1803               	skipnc
  3055     0118  3E01               	addlw	1
  3056     0119  1903               	skipnz
  3057     011A  291C               	goto	u255_21
  3058     011B  07C9               	addwf	___flmul@grs+1,f
  3059     011C                     u255_21:
  3060     011C  0844               	movf	??___flmul+2,w
  3061     011D  1103               	clrz
  3062     011E  1803               	skipnc
  3063     011F  3E01               	addlw	1
  3064     0120  1903               	skipnz
  3065     0121  2923               	goto	u255_22
  3066     0122  07CA               	addwf	___flmul@grs+2,f
  3067     0123                     u255_22:
  3068     0123  0845               	movf	??___flmul+3,w
  3069     0124  1103               	clrz
  3070     0125  1803               	skipnc
  3071     0126  3E01               	addlw	1
  3072     0127  1903               	skipnz
  3073     0128  292A               	goto	u255_23
  3074     0129  07CB               	addwf	___flmul@grs+3,f
  3075     012A                     u255_23:
  3076     012A                     i1l1933:
  3077     012A  0853               	movf	___flmul@temp+1,w
  3078     012B  00C2               	movwf	??___flmul
  3079     012C  01C3               	clrf	??___flmul+1
  3080     012D  01C4               	clrf	??___flmul+2
  3081     012E  01C5               	clrf	??___flmul+3
  3082     012F  0842               	movf	??___flmul,w
  3083     0130  07CE               	addwf	___flmul@prod,f
  3084     0131  0843               	movf	??___flmul+1,w
  3085     0132  1103               	clrz
  3086     0133  1803               	skipnc
  3087     0134  3E01               	addlw	1
  3088     0135  1903               	skipnz
  3089     0136  2938               	goto	u256_21
  3090     0137  07CF               	addwf	___flmul@prod+1,f
  3091     0138                     u256_21:
  3092     0138  0844               	movf	??___flmul+2,w
  3093     0139  1103               	clrz
  3094     013A  1803               	skipnc
  3095     013B  3E01               	addlw	1
  3096     013C  1903               	skipnz
  3097     013D  293F               	goto	u256_22
  3098     013E  07D0               	addwf	___flmul@prod+2,f
  3099     013F                     u256_22:
  3100     013F  0845               	movf	??___flmul+3,w
  3101     0140  1103               	clrz
  3102     0141  1803               	skipnc
  3103     0142  3E01               	addlw	1
  3104     0143  1903               	skipnz
  3105     0144  2946               	goto	u256_23
  3106     0145  07D1               	addwf	___flmul@prod+3,f
  3107     0146                     u256_23:
  3108     0146                     i1l1935:
  3109     0146  3008               	movlw	8
  3110     0147  00C2               	movwf	??___flmul
  3111     0148                     u257_25:
  3112     0148  1003               	clrc
  3113     0149  0DC8               	rlf	___flmul@grs,f
  3114     014A  0DC9               	rlf	___flmul@grs+1,f
  3115     014B  0DCA               	rlf	___flmul@grs+2,f
  3116     014C  0DCB               	rlf	___flmul@grs+3,f
  3117     014D  0BC2               	decfsz	??___flmul,f
  3118     014E  2948               	goto	u257_25
  3119     014F                     i1l1937:
  3120     014F  083B               	movf	___flmul@b+1,w
  3121     0150  00F0               	movwf	__Umul8_16@multiplicand
  3122     0151  083E               	movf	___flmul@a,w
  3123     0152  120A  158A  2412  120A  118A  	fcall	__Umul8_16
  3124     0157  0871               	movf	?__Umul8_16+1,w
  3125     0158  1283               	bcf	3,5	;RP0=0, select bank0
  3126     0159  1303               	bcf	3,6	;RP1=0, select bank0
  3127     015A  00D3               	movwf	___flmul@temp+1
  3128     015B  0870               	movf	?__Umul8_16,w
  3129     015C  00D2               	movwf	___flmul@temp
  3130     015D                     i1l1939:
  3131     015D  0852               	movf	___flmul@temp,w
  3132     015E  00C2               	movwf	??___flmul
  3133     015F  0853               	movf	___flmul@temp+1,w
  3134     0160  00C3               	movwf	??___flmul+1
  3135     0161  01C4               	clrf	??___flmul+2
  3136     0162  01C5               	clrf	??___flmul+3
  3137     0163  0842               	movf	??___flmul,w
  3138     0164  07C8               	addwf	___flmul@grs,f
  3139     0165  0843               	movf	??___flmul+1,w
  3140     0166  1103               	clrz
  3141     0167  1803               	skipnc
  3142     0168  3E01               	addlw	1
  3143     0169  1903               	skipnz
  3144     016A  296C               	goto	u258_21
  3145     016B  07C9               	addwf	___flmul@grs+1,f
  3146     016C                     u258_21:
  3147     016C  0844               	movf	??___flmul+2,w
  3148     016D  1103               	clrz
  3149     016E  1803               	skipnc
  3150     016F  3E01               	addlw	1
  3151     0170  1903               	skipnz
  3152     0171  2973               	goto	u258_22
  3153     0172  07CA               	addwf	___flmul@grs+2,f
  3154     0173                     u258_22:
  3155     0173  0845               	movf	??___flmul+3,w
  3156     0174  1103               	clrz
  3157     0175  1803               	skipnc
  3158     0176  3E01               	addlw	1
  3159     0177  1903               	skipnz
  3160     0178  297A               	goto	u258_23
  3161     0179  07CB               	addwf	___flmul@grs+3,f
  3162     017A                     u258_23:
  3163     017A                     i1l1941:
  3164     017A  083A               	movf	___flmul@b,w
  3165     017B  00F0               	movwf	__Umul8_16@multiplicand
  3166     017C  083F               	movf	___flmul@a+1,w
  3167     017D  120A  158A  2412  120A  118A  	fcall	__Umul8_16
  3168     0182  0871               	movf	?__Umul8_16+1,w
  3169     0183  1283               	bcf	3,5	;RP0=0, select bank0
  3170     0184  1303               	bcf	3,6	;RP1=0, select bank0
  3171     0185  00D3               	movwf	___flmul@temp+1
  3172     0186  0870               	movf	?__Umul8_16,w
  3173     0187  00D2               	movwf	___flmul@temp
  3174     0188                     i1l1943:
  3175     0188  0852               	movf	___flmul@temp,w
  3176     0189  00C2               	movwf	??___flmul
  3177     018A  0853               	movf	___flmul@temp+1,w
  3178     018B  00C3               	movwf	??___flmul+1
  3179     018C  01C4               	clrf	??___flmul+2
  3180     018D  01C5               	clrf	??___flmul+3
  3181     018E  0842               	movf	??___flmul,w
  3182     018F  07C8               	addwf	___flmul@grs,f
  3183     0190  0843               	movf	??___flmul+1,w
  3184     0191  1103               	clrz
  3185     0192  1803               	skipnc
  3186     0193  3E01               	addlw	1
  3187     0194  1903               	skipnz
  3188     0195  2997               	goto	u259_21
  3189     0196  07C9               	addwf	___flmul@grs+1,f
  3190     0197                     u259_21:
  3191     0197  0844               	movf	??___flmul+2,w
  3192     0198  1103               	clrz
  3193     0199  1803               	skipnc
  3194     019A  3E01               	addlw	1
  3195     019B  1903               	skipnz
  3196     019C  299E               	goto	u259_22
  3197     019D  07CA               	addwf	___flmul@grs+2,f
  3198     019E                     u259_22:
  3199     019E  0845               	movf	??___flmul+3,w
  3200     019F  1103               	clrz
  3201     01A0  1803               	skipnc
  3202     01A1  3E01               	addlw	1
  3203     01A2  1903               	skipnz
  3204     01A3  29A5               	goto	u259_23
  3205     01A4  07CB               	addwf	___flmul@grs+3,f
  3206     01A5                     u259_23:
  3207     01A5                     i1l1945:
  3208     01A5  3008               	movlw	8
  3209     01A6  00C2               	movwf	??___flmul
  3210     01A7                     u260_25:
  3211     01A7  1003               	clrc
  3212     01A8  0DC8               	rlf	___flmul@grs,f
  3213     01A9  0DC9               	rlf	___flmul@grs+1,f
  3214     01AA  0DCA               	rlf	___flmul@grs+2,f
  3215     01AB  0DCB               	rlf	___flmul@grs+3,f
  3216     01AC  0BC2               	decfsz	??___flmul,f
  3217     01AD  29A7               	goto	u260_25
  3218     01AE  083A               	movf	___flmul@b,w
  3219     01AF  00F0               	movwf	__Umul8_16@multiplicand
  3220     01B0  083E               	movf	___flmul@a,w
  3221     01B1  120A  158A  2412  120A  118A  	fcall	__Umul8_16
  3222     01B6  0871               	movf	?__Umul8_16+1,w
  3223     01B7  1283               	bcf	3,5	;RP0=0, select bank0
  3224     01B8  1303               	bcf	3,6	;RP1=0, select bank0
  3225     01B9  00D3               	movwf	___flmul@temp+1
  3226     01BA  0870               	movf	?__Umul8_16,w
  3227     01BB  00D2               	movwf	___flmul@temp
  3228     01BC                     i1l1947:
  3229     01BC  0852               	movf	___flmul@temp,w
  3230     01BD  00C2               	movwf	??___flmul
  3231     01BE  0853               	movf	___flmul@temp+1,w
  3232     01BF  00C3               	movwf	??___flmul+1
  3233     01C0  01C4               	clrf	??___flmul+2
  3234     01C1  01C5               	clrf	??___flmul+3
  3235     01C2  0842               	movf	??___flmul,w
  3236     01C3  07C8               	addwf	___flmul@grs,f
  3237     01C4  0843               	movf	??___flmul+1,w
  3238     01C5  1103               	clrz
  3239     01C6  1803               	skipnc
  3240     01C7  3E01               	addlw	1
  3241     01C8  1903               	skipnz
  3242     01C9  29CB               	goto	u261_21
  3243     01CA  07C9               	addwf	___flmul@grs+1,f
  3244     01CB                     u261_21:
  3245     01CB  0844               	movf	??___flmul+2,w
  3246     01CC  1103               	clrz
  3247     01CD  1803               	skipnc
  3248     01CE  3E01               	addlw	1
  3249     01CF  1903               	skipnz
  3250     01D0  29D2               	goto	u261_22
  3251     01D1  07CA               	addwf	___flmul@grs+2,f
  3252     01D2                     u261_22:
  3253     01D2  0845               	movf	??___flmul+3,w
  3254     01D3  1103               	clrz
  3255     01D4  1803               	skipnc
  3256     01D5  3E01               	addlw	1
  3257     01D6  1903               	skipnz
  3258     01D7  29D9               	goto	u261_23
  3259     01D8  07CB               	addwf	___flmul@grs+3,f
  3260     01D9                     u261_23:
  3261     01D9                     i1l1949:
  3262     01D9  083B               	movf	___flmul@b+1,w
  3263     01DA  00F0               	movwf	__Umul8_16@multiplicand
  3264     01DB  0840               	movf	___flmul@a+2,w
  3265     01DC  120A  158A  2412  120A  118A  	fcall	__Umul8_16
  3266     01E1  0871               	movf	?__Umul8_16+1,w
  3267     01E2  1283               	bcf	3,5	;RP0=0, select bank0
  3268     01E3  1303               	bcf	3,6	;RP1=0, select bank0
  3269     01E4  00D3               	movwf	___flmul@temp+1
  3270     01E5  0870               	movf	?__Umul8_16,w
  3271     01E6  00D2               	movwf	___flmul@temp
  3272     01E7  0852               	movf	___flmul@temp,w
  3273     01E8  00C2               	movwf	??___flmul
  3274     01E9  0853               	movf	___flmul@temp+1,w
  3275     01EA  00C3               	movwf	??___flmul+1
  3276     01EB  01C4               	clrf	??___flmul+2
  3277     01EC  01C5               	clrf	??___flmul+3
  3278     01ED  0842               	movf	??___flmul,w
  3279     01EE  07CE               	addwf	___flmul@prod,f
  3280     01EF  0843               	movf	??___flmul+1,w
  3281     01F0  1103               	clrz
  3282     01F1  1803               	skipnc
  3283     01F2  3E01               	addlw	1
  3284     01F3  1903               	skipnz
  3285     01F4  29F6               	goto	u262_21
  3286     01F5  07CF               	addwf	___flmul@prod+1,f
  3287     01F6                     u262_21:
  3288     01F6  0844               	movf	??___flmul+2,w
  3289     01F7  1103               	clrz
  3290     01F8  1803               	skipnc
  3291     01F9  3E01               	addlw	1
  3292     01FA  1903               	skipnz
  3293     01FB  29FD               	goto	u262_22
  3294     01FC  07D0               	addwf	___flmul@prod+2,f
  3295     01FD                     u262_22:
  3296     01FD  0845               	movf	??___flmul+3,w
  3297     01FE  1103               	clrz
  3298     01FF  1803               	skipnc
  3299     0200  3E01               	addlw	1
  3300     0201  1903               	skipnz
  3301     0202  2A04               	goto	u262_23
  3302     0203  07D1               	addwf	___flmul@prod+3,f
  3303     0204                     u262_23:
  3304     0204                     i1l1951:
  3305     0204  083C               	movf	___flmul@b+2,w
  3306     0205  00F0               	movwf	__Umul8_16@multiplicand
  3307     0206  083F               	movf	___flmul@a+1,w
  3308     0207  120A  158A  2412  120A  118A  	fcall	__Umul8_16
  3309     020C  0871               	movf	?__Umul8_16+1,w
  3310     020D  1283               	bcf	3,5	;RP0=0, select bank0
  3311     020E  1303               	bcf	3,6	;RP1=0, select bank0
  3312     020F  00D3               	movwf	___flmul@temp+1
  3313     0210  0870               	movf	?__Umul8_16,w
  3314     0211  00D2               	movwf	___flmul@temp
  3315     0212                     i1l1953:
  3316     0212  0852               	movf	___flmul@temp,w
  3317     0213  00C2               	movwf	??___flmul
  3318     0214  0853               	movf	___flmul@temp+1,w
  3319     0215  00C3               	movwf	??___flmul+1
  3320     0216  01C4               	clrf	??___flmul+2
  3321     0217  01C5               	clrf	??___flmul+3
  3322     0218  0842               	movf	??___flmul,w
  3323     0219  07CE               	addwf	___flmul@prod,f
  3324     021A  0843               	movf	??___flmul+1,w
  3325     021B  1103               	clrz
  3326     021C  1803               	skipnc
  3327     021D  3E01               	addlw	1
  3328     021E  1903               	skipnz
  3329     021F  2A21               	goto	u263_21
  3330     0220  07CF               	addwf	___flmul@prod+1,f
  3331     0221                     u263_21:
  3332     0221  0844               	movf	??___flmul+2,w
  3333     0222  1103               	clrz
  3334     0223  1803               	skipnc
  3335     0224  3E01               	addlw	1
  3336     0225  1903               	skipnz
  3337     0226  2A28               	goto	u263_22
  3338     0227  07D0               	addwf	___flmul@prod+2,f
  3339     0228                     u263_22:
  3340     0228  0845               	movf	??___flmul+3,w
  3341     0229  1103               	clrz
  3342     022A  1803               	skipnc
  3343     022B  3E01               	addlw	1
  3344     022C  1903               	skipnz
  3345     022D  2A2F               	goto	u263_23
  3346     022E  07D1               	addwf	___flmul@prod+3,f
  3347     022F                     u263_23:
  3348     022F  083C               	movf	___flmul@b+2,w
  3349     0230  00F0               	movwf	__Umul8_16@multiplicand
  3350     0231  0840               	movf	___flmul@a+2,w
  3351     0232  120A  158A  2412  120A  118A  	fcall	__Umul8_16
  3352     0237  0871               	movf	?__Umul8_16+1,w
  3353     0238  1283               	bcf	3,5	;RP0=0, select bank0
  3354     0239  1303               	bcf	3,6	;RP1=0, select bank0
  3355     023A  00D3               	movwf	___flmul@temp+1
  3356     023B  0870               	movf	?__Umul8_16,w
  3357     023C  00D2               	movwf	___flmul@temp
  3358     023D                     i1l1955:
  3359     023D  0852               	movf	___flmul@temp,w
  3360     023E  00C2               	movwf	??___flmul
  3361     023F  0853               	movf	___flmul@temp+1,w
  3362     0240  00C3               	movwf	??___flmul+1
  3363     0241  01C4               	clrf	??___flmul+2
  3364     0242  01C5               	clrf	??___flmul+3
  3365     0243  3008               	movlw	8
  3366     0244                     u264_25:
  3367     0244  1003               	clrc
  3368     0245  0DC2               	rlf	??___flmul,f
  3369     0246  0DC3               	rlf	??___flmul+1,f
  3370     0247  0DC4               	rlf	??___flmul+2,f
  3371     0248  0DC5               	rlf	??___flmul+3,f
  3372     0249                     u264_20:
  3373     0249  3EFF               	addlw	-1
  3374     024A  1D03               	skipz
  3375     024B  2A44               	goto	u264_25
  3376     024C  0842               	movf	??___flmul,w
  3377     024D  07CE               	addwf	___flmul@prod,f
  3378     024E  0843               	movf	??___flmul+1,w
  3379     024F  1103               	clrz
  3380     0250  1803               	skipnc
  3381     0251  3E01               	addlw	1
  3382     0252  1903               	skipnz
  3383     0253  2A55               	goto	u265_21
  3384     0254  07CF               	addwf	___flmul@prod+1,f
  3385     0255                     u265_21:
  3386     0255  0844               	movf	??___flmul+2,w
  3387     0256  1103               	clrz
  3388     0257  1803               	skipnc
  3389     0258  3E01               	addlw	1
  3390     0259  1903               	skipnz
  3391     025A  2A5C               	goto	u265_22
  3392     025B  07D0               	addwf	___flmul@prod+2,f
  3393     025C                     u265_22:
  3394     025C  0845               	movf	??___flmul+3,w
  3395     025D  1103               	clrz
  3396     025E  1803               	skipnc
  3397     025F  3E01               	addlw	1
  3398     0260  1903               	skipnz
  3399     0261  2A63               	goto	u265_23
  3400     0262  07D1               	addwf	___flmul@prod+3,f
  3401     0263                     u265_23:
  3402     0263                     i1l1957:
  3403     0263  0848               	movf	___flmul@grs,w
  3404     0264  00C2               	movwf	??___flmul
  3405     0265  0849               	movf	___flmul@grs+1,w
  3406     0266  00C3               	movwf	??___flmul+1
  3407     0267  084A               	movf	___flmul@grs+2,w
  3408     0268  00C4               	movwf	??___flmul+2
  3409     0269  084B               	movf	___flmul@grs+3,w
  3410     026A  00C5               	movwf	??___flmul+3
  3411     026B  3018               	movlw	24
  3412     026C                     u266_25:
  3413     026C  1003               	clrc
  3414     026D  0CC5               	rrf	??___flmul+3,f
  3415     026E  0CC4               	rrf	??___flmul+2,f
  3416     026F  0CC3               	rrf	??___flmul+1,f
  3417     0270  0CC2               	rrf	??___flmul,f
  3418     0271                     u266_20:
  3419     0271  3EFF               	addlw	-1
  3420     0272  1D03               	skipz
  3421     0273  2A6C               	goto	u266_25
  3422     0274  0842               	movf	??___flmul,w
  3423     0275  07CE               	addwf	___flmul@prod,f
  3424     0276  0843               	movf	??___flmul+1,w
  3425     0277  1103               	clrz
  3426     0278  1803               	skipnc
  3427     0279  3E01               	addlw	1
  3428     027A  1903               	skipnz
  3429     027B  2A7D               	goto	u267_21
  3430     027C  07CF               	addwf	___flmul@prod+1,f
  3431     027D                     u267_21:
  3432     027D  0844               	movf	??___flmul+2,w
  3433     027E  1103               	clrz
  3434     027F  1803               	skipnc
  3435     0280  3E01               	addlw	1
  3436     0281  1903               	skipnz
  3437     0282  2A84               	goto	u267_22
  3438     0283  07D0               	addwf	___flmul@prod+2,f
  3439     0284                     u267_22:
  3440     0284  0845               	movf	??___flmul+3,w
  3441     0285  1103               	clrz
  3442     0286  1803               	skipnc
  3443     0287  3E01               	addlw	1
  3444     0288  1903               	skipnz
  3445     0289  2A8B               	goto	u267_23
  3446     028A  07D1               	addwf	___flmul@prod+3,f
  3447     028B                     u267_23:
  3448     028B                     i1l1959:
  3449     028B  3008               	movlw	8
  3450     028C  00C2               	movwf	??___flmul
  3451     028D                     u268_25:
  3452     028D  1003               	clrc
  3453     028E  0DC8               	rlf	___flmul@grs,f
  3454     028F  0DC9               	rlf	___flmul@grs+1,f
  3455     0290  0DCA               	rlf	___flmul@grs+2,f
  3456     0291  0DCB               	rlf	___flmul@grs+3,f
  3457     0292  0BC2               	decfsz	??___flmul,f
  3458     0293  2A8D               	goto	u268_25
  3459     0294                     i1l1961:
  3460     0294  084D               	movf	___flmul@bexp,w
  3461     0295  074C               	addwf	___flmul@aexp,w
  3462     0296  00C2               	movwf	??___flmul
  3463     0297  01C3               	clrf	??___flmul+1
  3464     0298  0DC3               	rlf	??___flmul+1,f
  3465     0299  0842               	movf	??___flmul,w
  3466     029A  3E82               	addlw	130
  3467     029B  00D2               	movwf	___flmul@temp
  3468     029C  0843               	movf	??___flmul+1,w
  3469     029D  1803               	skipnc
  3470     029E  3E01               	addlw	1
  3471     029F  3EFF               	addlw	255
  3472     02A0  00D3               	movwf	___flmul@temp+1
  3473     02A1  2ABF               	goto	i1l1973
  3474     02A2                     i1l1963:
  3475     02A2  3001               	movlw	1
  3476     02A3  00C2               	movwf	??___flmul
  3477     02A4                     u269_25:
  3478     02A4  1003               	clrc
  3479     02A5  0DCE               	rlf	___flmul@prod,f
  3480     02A6  0DCF               	rlf	___flmul@prod+1,f
  3481     02A7  0DD0               	rlf	___flmul@prod+2,f
  3482     02A8  0DD1               	rlf	___flmul@prod+3,f
  3483     02A9  0BC2               	decfsz	??___flmul,f
  3484     02AA  2AA4               	goto	u269_25
  3485     02AB                     i1l1965:
  3486     02AB  1FCB               	btfss	___flmul@grs+3,7
  3487     02AC  2AAE               	goto	u270_21
  3488     02AD  2AAF               	goto	u270_20
  3489     02AE                     u270_21:
  3490     02AE  2AB0               	goto	i1l1969
  3491     02AF                     u270_20:
  3492     02AF                     i1l1967:
  3493     02AF  144E               	bsf	___flmul@prod,0
  3494     02B0                     i1l1969:
  3495     02B0  3001               	movlw	1
  3496     02B1  00C2               	movwf	??___flmul
  3497     02B2                     u271_25:
  3498     02B2  1003               	clrc
  3499     02B3  0DC8               	rlf	___flmul@grs,f
  3500     02B4  0DC9               	rlf	___flmul@grs+1,f
  3501     02B5  0DCA               	rlf	___flmul@grs+2,f
  3502     02B6  0DCB               	rlf	___flmul@grs+3,f
  3503     02B7  0BC2               	decfsz	??___flmul,f
  3504     02B8  2AB2               	goto	u271_25
  3505     02B9                     i1l1971:
  3506     02B9  30FF               	movlw	255
  3507     02BA  07D2               	addwf	___flmul@temp,f
  3508     02BB  1803               	skipnc
  3509     02BC  0AD3               	incf	___flmul@temp+1,f
  3510     02BD  30FF               	movlw	255
  3511     02BE  07D3               	addwf	___flmul@temp+1,f
  3512     02BF                     i1l1973:
  3513     02BF  1FD0               	btfss	___flmul@prod+2,7
  3514     02C0  2AC2               	goto	u272_21
  3515     02C1  2AC3               	goto	u272_20
  3516     02C2                     u272_21:
  3517     02C2  2AA2               	goto	i1l1963
  3518     02C3                     u272_20:
  3519     02C3                     i1l1975:
  3520     02C3  01CC               	clrf	___flmul@aexp
  3521     02C4                     i1l1977:
  3522     02C4  1FCB               	btfss	___flmul@grs+3,7
  3523     02C5  2AC7               	goto	u273_21
  3524     02C6  2AC8               	goto	u273_20
  3525     02C7                     u273_21:
  3526     02C7  2AE4               	goto	i1l1985
  3527     02C8                     u273_20:
  3528     02C8                     i1l1979:
  3529     02C8  30FF               	movlw	255
  3530     02C9  0548               	andwf	___flmul@grs,w
  3531     02CA  00C2               	movwf	??___flmul
  3532     02CB  30FF               	movlw	255
  3533     02CC  0549               	andwf	___flmul@grs+1,w
  3534     02CD  00C3               	movwf	??___flmul+1
  3535     02CE  30FF               	movlw	255
  3536     02CF  054A               	andwf	___flmul@grs+2,w
  3537     02D0  00C4               	movwf	??___flmul+2
  3538     02D1  307F               	movlw	127
  3539     02D2  054B               	andwf	___flmul@grs+3,w
  3540     02D3  00C5               	movwf	??___flmul+3
  3541     02D4  0845               	movf	??___flmul+3,w
  3542     02D5  0444               	iorwf	??___flmul+2,w
  3543     02D6  0443               	iorwf	??___flmul+1,w
  3544     02D7  0442               	iorwf	??___flmul,w
  3545     02D8  1903               	skipnz
  3546     02D9  2ADB               	goto	u274_21
  3547     02DA  2ADC               	goto	u274_20
  3548     02DB                     u274_21:
  3549     02DB  2ADF               	goto	i1l648
  3550     02DC                     u274_20:
  3551     02DC                     i1l1981:
  3552     02DC  01CC               	clrf	___flmul@aexp
  3553     02DD  0ACC               	incf	___flmul@aexp,f
  3554     02DE  2AE4               	goto	i1l1985
  3555     02DF                     i1l648:
  3556     02DF  1C4E               	btfss	___flmul@prod,0
  3557     02E0  2AE2               	goto	u275_21
  3558     02E1  2AE3               	goto	u275_20
  3559     02E2                     u275_21:
  3560     02E2  2AE4               	goto	i1l1985
  3561     02E3                     u275_20:
  3562     02E3  2ADC               	goto	i1l1981
  3563     02E4                     i1l1985:
  3564     02E4  084C               	movf	___flmul@aexp,w
  3565     02E5  1903               	btfsc	3,2
  3566     02E6  2AE8               	goto	u276_21
  3567     02E7  2AE9               	goto	u276_20
  3568     02E8                     u276_21:
  3569     02E8  2B1A               	goto	i1l1995
  3570     02E9                     u276_20:
  3571     02E9                     i1l1987:
  3572     02E9  3001               	movlw	1
  3573     02EA  07CE               	addwf	___flmul@prod,f
  3574     02EB  3000               	movlw	0
  3575     02EC  1803               	skipnc
  3576     02ED  3001               	movlw	1
  3577     02EE  07CF               	addwf	___flmul@prod+1,f
  3578     02EF  3000               	movlw	0
  3579     02F0  1803               	skipnc
  3580     02F1  3001               	movlw	1
  3581     02F2  07D0               	addwf	___flmul@prod+2,f
  3582     02F3  3000               	movlw	0
  3583     02F4  1803               	skipnc
  3584     02F5  3001               	movlw	1
  3585     02F6  07D1               	addwf	___flmul@prod+3,f
  3586     02F7                     i1l1989:
  3587     02F7  1C51               	btfss	___flmul@prod+3,0
  3588     02F8  2AFA               	goto	u277_21
  3589     02F9  2AFB               	goto	u277_20
  3590     02FA                     u277_21:
  3591     02FA  2B1A               	goto	i1l1995
  3592     02FB                     u277_20:
  3593     02FB                     i1l1991:
  3594     02FB  084E               	movf	___flmul@prod,w
  3595     02FC  00C2               	movwf	??___flmul
  3596     02FD  084F               	movf	___flmul@prod+1,w
  3597     02FE  00C3               	movwf	??___flmul+1
  3598     02FF  0850               	movf	___flmul@prod+2,w
  3599     0300  00C4               	movwf	??___flmul+2
  3600     0301  0851               	movf	___flmul@prod+3,w
  3601     0302  00C5               	movwf	??___flmul+3
  3602     0303  3001               	movlw	1
  3603     0304  00C6               	movwf	??___flmul+4
  3604     0305                     u278_25:
  3605     0305  0D45               	rlf	??___flmul+3,w
  3606     0306  0CC5               	rrf	??___flmul+3,f
  3607     0307  0CC4               	rrf	??___flmul+2,f
  3608     0308  0CC3               	rrf	??___flmul+1,f
  3609     0309  0CC2               	rrf	??___flmul,f
  3610     030A                     u278_20:
  3611     030A  0BC6               	decfsz	??___flmul+4,f
  3612     030B  2B05               	goto	u278_25
  3613     030C  0845               	movf	??___flmul+3,w
  3614     030D  00D1               	movwf	___flmul@prod+3
  3615     030E  0844               	movf	??___flmul+2,w
  3616     030F  00D0               	movwf	___flmul@prod+2
  3617     0310  0843               	movf	??___flmul+1,w
  3618     0311  00CF               	movwf	___flmul@prod+1
  3619     0312  0842               	movf	??___flmul,w
  3620     0313  00CE               	movwf	___flmul@prod
  3621     0314                     i1l1993:
  3622     0314  3001               	movlw	1
  3623     0315  07D2               	addwf	___flmul@temp,f
  3624     0316  1803               	skipnc
  3625     0317  0AD3               	incf	___flmul@temp+1,f
  3626     0318  3000               	movlw	0
  3627     0319  07D3               	addwf	___flmul@temp+1,f
  3628     031A                     i1l1995:
  3629     031A  0853               	movf	___flmul@temp+1,w
  3630     031B  3A80               	xorlw	128
  3631     031C  00FF               	movwf	btemp+1
  3632     031D  3080               	movlw	128
  3633     031E  027F               	subwf	btemp+1,w
  3634     031F  1D03               	skipz
  3635     0320  2B23               	goto	u279_25
  3636     0321  30FF               	movlw	255
  3637     0322  0252               	subwf	___flmul@temp,w
  3638     0323                     u279_25:
  3639     0323  1C03               	skipc
  3640     0324  2B26               	goto	u279_21
  3641     0325  2B27               	goto	u279_20
  3642     0326                     u279_21:
  3643     0326  2B32               	goto	i1l1999
  3644     0327                     u279_20:
  3645     0327                     i1l1997:
  3646     0327  307F               	movlw	127
  3647     0328  1283               	bcf	3,5	;RP0=0, select bank0
  3648     0329  1303               	bcf	3,6	;RP1=0, select bank0
  3649     032A  00D1               	movwf	___flmul@prod+3
  3650     032B  3080               	movlw	128
  3651     032C  00D0               	movwf	___flmul@prod+2
  3652     032D  3000               	movlw	0
  3653     032E  00CF               	movwf	___flmul@prod+1
  3654     032F  3000               	movlw	0
  3655     0330  00CE               	movwf	___flmul@prod
  3656     0331  2B63               	goto	i1l654
  3657     0332                     i1l1999:
  3658     0332  1283               	bcf	3,5	;RP0=0, select bank0
  3659     0333  1303               	bcf	3,6	;RP1=0, select bank0
  3660     0334  0853               	movf	___flmul@temp+1,w
  3661     0335  3A80               	xorlw	128
  3662     0336  00FF               	movwf	btemp+1
  3663     0337  3080               	movlw	128
  3664     0338  027F               	subwf	btemp+1,w
  3665     0339  1D03               	skipz
  3666     033A  2B3D               	goto	u280_25
  3667     033B  3001               	movlw	1
  3668     033C  0252               	subwf	___flmul@temp,w
  3669     033D                     u280_25:
  3670     033D  1803               	skipnc
  3671     033E  2B40               	goto	u280_21
  3672     033F  2B41               	goto	u280_20
  3673     0340                     u280_21:
  3674     0340  2B4D               	goto	i1l2005
  3675     0341                     u280_20:
  3676     0341                     i1l2001:
  3677     0341  3000               	movlw	0
  3678     0342  1283               	bcf	3,5	;RP0=0, select bank0
  3679     0343  1303               	bcf	3,6	;RP1=0, select bank0
  3680     0344  00D1               	movwf	___flmul@prod+3
  3681     0345  3000               	movlw	0
  3682     0346  00D0               	movwf	___flmul@prod+2
  3683     0347  3000               	movlw	0
  3684     0348  00CF               	movwf	___flmul@prod+1
  3685     0349  3000               	movlw	0
  3686     034A  00CE               	movwf	___flmul@prod
  3687     034B                     i1l2003:
  3688     034B  01C7               	clrf	___flmul@sign
  3689     034C  2B63               	goto	i1l654
  3690     034D                     i1l2005:
  3691     034D  1283               	bcf	3,5	;RP0=0, select bank0
  3692     034E  1303               	bcf	3,6	;RP1=0, select bank0
  3693     034F  0852               	movf	___flmul@temp,w
  3694     0350  00CD               	movwf	___flmul@bexp
  3695     0351  30FF               	movlw	255
  3696     0352  05CE               	andwf	___flmul@prod,f
  3697     0353  30FF               	movlw	255
  3698     0354  05CF               	andwf	___flmul@prod+1,f
  3699     0355  307F               	movlw	127
  3700     0356  05D0               	andwf	___flmul@prod+2,f
  3701     0357  3000               	movlw	0
  3702     0358  05D1               	andwf	___flmul@prod+3,f
  3703     0359                     i1l2007:
  3704     0359  1C4D               	btfss	___flmul@bexp,0
  3705     035A  2B5C               	goto	u281_21
  3706     035B  2B5D               	goto	u281_20
  3707     035C                     u281_21:
  3708     035C  2B5E               	goto	i1l2011
  3709     035D                     u281_20:
  3710     035D                     i1l2009:
  3711     035D  17D0               	bsf	___flmul@prod+2,7
  3712     035E                     i1l2011:
  3713     035E  084D               	movf	___flmul@bexp,w
  3714     035F  00C2               	movwf	??___flmul
  3715     0360  1003               	clrc
  3716     0361  0C42               	rrf	??___flmul,w
  3717     0362  00D1               	movwf	___flmul@prod+3
  3718     0363                     i1l654:
  3719     0363  0847               	movf	___flmul@sign,w
  3720     0364  00C2               	movwf	??___flmul
  3721     0365  0842               	movf	??___flmul,w
  3722     0366  04D1               	iorwf	___flmul@prod+3,f
  3723     0367                     i1l2013:
  3724     0367  0851               	movf	___flmul@prod+3,w
  3725     0368  00BD               	movwf	?___flmul+3
  3726     0369  0850               	movf	___flmul@prod+2,w
  3727     036A  00BC               	movwf	?___flmul+2
  3728     036B  084F               	movf	___flmul@prod+1,w
  3729     036C  00BB               	movwf	?___flmul+1
  3730     036D  084E               	movf	___flmul@prod,w
  3731     036E  00BA               	movwf	?___flmul
  3732     036F                     i1l642:
  3733     036F  0008               	return
  3734     0370                     __end_of___flmul:
  3735                           
  3736                           	psect	text13
  3737     0C12                     __ptext13:	
  3738 ;; *************** function __Umul8_16 *****************
  3739 ;; Defined at:
  3740 ;;		line 4 in file "C:\Program Files\Microchip\xc8\v2.40\pic\sources\c90\common\Umul8_16.c"
  3741 ;; Parameters:    Size  Location     Type
  3742 ;;  multiplier      1    wreg     unsigned char 
  3743 ;;  multiplicand    1    0[COMMON] unsigned char 
  3744 ;; Auto vars:     Size  Location     Type
  3745 ;;  multiplier      1    8[COMMON] unsigned char 
  3746 ;;  word_mpld       2    6[COMMON] unsigned int 
  3747 ;;  product         2    4[COMMON] unsigned int 
  3748 ;; Return value:  Size  Location     Type
  3749 ;;                  2    0[COMMON] unsigned int 
  3750 ;; Registers used:
  3751 ;;		wreg, status,2, status,0
  3752 ;; Tracked objects:
  3753 ;;		On entry : 0/0
  3754 ;;		On exit  : 0/0
  3755 ;;		Unchanged: 0/0
  3756 ;; Data sizes:     COMMON   BANK0   BANK1   BANK3   BANK2
  3757 ;;      Params:         2       0       0       0       0
  3758 ;;      Locals:         5       0       0       0       0
  3759 ;;      Temps:          2       0       0       0       0
  3760 ;;      Totals:         9       0       0       0       0
  3761 ;;Total ram usage:        9 bytes
  3762 ;; Hardware stack levels used: 1
  3763 ;; This function calls:
  3764 ;;		Nothing
  3765 ;; This function is called by:
  3766 ;;		___flmul
  3767 ;; This function uses a non-reentrant model
  3768 ;;
  3769                           
  3770     0C12                     __Umul8_16:	
  3771                           ;psect for function __Umul8_16
  3772                           
  3773                           
  3774                           ;incstack = 0
  3775                           ; Regs used in __Umul8_16: [wreg+status,2+status,0]
  3776                           ;__Umul8_16@multiplier stored from wreg
  3777     0C12  00F8               	movwf	__Umul8_16@multiplier
  3778     0C13                     i1l1489:
  3779     0C13  01F4               	clrf	__Umul8_16@product
  3780     0C14  01F5               	clrf	__Umul8_16@product+1
  3781     0C15                     i1l1491:
  3782     0C15  0870               	movf	__Umul8_16@multiplicand,w
  3783     0C16  00F2               	movwf	??__Umul8_16
  3784     0C17  01F3               	clrf	??__Umul8_16+1
  3785     0C18  0872               	movf	??__Umul8_16,w
  3786     0C19  00F6               	movwf	__Umul8_16@word_mpld
  3787     0C1A  0873               	movf	??__Umul8_16+1,w
  3788     0C1B  00F7               	movwf	__Umul8_16@word_mpld+1
  3789     0C1C                     i1l1493:
  3790     0C1C  1C78               	btfss	__Umul8_16@multiplier,0
  3791     0C1D  2C1F               	goto	u157_21
  3792     0C1E  2C20               	goto	u157_20
  3793     0C1F                     u157_21:
  3794     0C1F  2C26               	goto	i1l661
  3795     0C20                     u157_20:
  3796     0C20                     i1l1495:
  3797     0C20  0876               	movf	__Umul8_16@word_mpld,w
  3798     0C21  07F4               	addwf	__Umul8_16@product,f
  3799     0C22  1803               	skipnc
  3800     0C23  0AF5               	incf	__Umul8_16@product+1,f
  3801     0C24  0877               	movf	__Umul8_16@word_mpld+1,w
  3802     0C25  07F5               	addwf	__Umul8_16@product+1,f
  3803     0C26                     i1l661:
  3804     0C26  3001               	movlw	1
  3805     0C27                     u158_25:
  3806     0C27  1003               	clrc
  3807     0C28  0DF6               	rlf	__Umul8_16@word_mpld,f
  3808     0C29  0DF7               	rlf	__Umul8_16@word_mpld+1,f
  3809     0C2A  3EFF               	addlw	-1
  3810     0C2B  1D03               	skipz
  3811     0C2C  2C27               	goto	u158_25
  3812     0C2D  1003               	clrc
  3813     0C2E  0CF8               	rrf	__Umul8_16@multiplier,f
  3814     0C2F                     i1l1497:
  3815     0C2F  0878               	movf	__Umul8_16@multiplier,w
  3816     0C30  1D03               	btfss	3,2
  3817     0C31  2C33               	goto	u159_21
  3818     0C32  2C34               	goto	u159_20
  3819     0C33                     u159_21:
  3820     0C33  2C1C               	goto	i1l1493
  3821     0C34                     u159_20:
  3822     0C34                     i1l1499:
  3823     0C34  0875               	movf	__Umul8_16@product+1,w
  3824     0C35  00F1               	movwf	?__Umul8_16+1
  3825     0C36  0874               	movf	__Umul8_16@product,w
  3826     0C37  00F0               	movwf	?__Umul8_16
  3827     0C38                     i1l663:
  3828     0C38  0008               	return
  3829     0C39                     __end_of__Umul8_16:
  3830                           
  3831                           	psect	text14
  3832     05C8                     __ptext14:	
  3833 ;; *************** function ___fldiv *****************
  3834 ;; Defined at:
  3835 ;;		line 8 in file "C:\Program Files\Microchip\xc8\v2.40\pic\sources\c90\common\sprcdiv.c"
  3836 ;; Parameters:    Size  Location     Type
  3837 ;;  a               4    0[BANK0 ] unsigned int 
  3838 ;;  b               4    4[BANK0 ] unsigned int 
  3839 ;; Auto vars:     Size  Location     Type
  3840 ;;  grs             4   20[BANK0 ] unsigned long 
  3841 ;;  rem             4   13[BANK0 ] unsigned long 
  3842 ;;  new_exp         2   18[BANK0 ] int 
  3843 ;;  aexp            1   25[BANK0 ] unsigned char 
  3844 ;;  bexp            1   24[BANK0 ] unsigned char 
  3845 ;;  sign            1   17[BANK0 ] unsigned char 
  3846 ;; Return value:  Size  Location     Type
  3847 ;;                  4    0[BANK0 ] unsigned char 
  3848 ;; Registers used:
  3849 ;;		wreg, status,2, status,0, btemp+1
  3850 ;; Tracked objects:
  3851 ;;		On entry : 0/0
  3852 ;;		On exit  : 0/0
  3853 ;;		Unchanged: 0/0
  3854 ;; Data sizes:     COMMON   BANK0   BANK1   BANK3   BANK2
  3855 ;;      Params:         0       8       0       0       0
  3856 ;;      Locals:         0      13       0       0       0
  3857 ;;      Temps:          0       5       0       0       0
  3858 ;;      Totals:         0      26       0       0       0
  3859 ;;Total ram usage:       26 bytes
  3860 ;; Hardware stack levels used: 1
  3861 ;; This function calls:
  3862 ;;		Nothing
  3863 ;; This function is called by:
  3864 ;;		_map
  3865 ;; This function uses a non-reentrant model
  3866 ;;
  3867                           
  3868     05C8                     ___fldiv:	
  3869                           ;psect for function ___fldiv
  3870                           
  3871     05C8                     i1l1735:	
  3872                           ;incstack = 0
  3873                           ; Regs used in ___fldiv: [wreg+status,2+status,0+btemp+1]
  3874                           
  3875     05C8  1283               	bcf	3,5	;RP0=0, select bank0
  3876     05C9  1303               	bcf	3,6	;RP1=0, select bank0
  3877     05CA  0827               	movf	___fldiv@b+3,w
  3878     05CB  3980               	andlw	128
  3879     05CC  00B1               	movwf	___fldiv@sign
  3880     05CD                     i1l1737:
  3881     05CD  0827               	movf	___fldiv@b+3,w
  3882     05CE  00A8               	movwf	??___fldiv
  3883     05CF  0728               	addwf	??___fldiv,w
  3884     05D0  00B8               	movwf	___fldiv@bexp
  3885     05D1                     i1l1739:
  3886     05D1  1FA6               	btfss	___fldiv@b+2,7
  3887     05D2  2DD4               	goto	u216_21
  3888     05D3  2DD5               	goto	u216_20
  3889     05D4                     u216_21:
  3890     05D4  2DD6               	goto	i1l1743
  3891     05D5                     u216_20:
  3892     05D5                     i1l1741:
  3893     05D5  1438               	bsf	___fldiv@bexp,0
  3894     05D6                     i1l1743:
  3895     05D6  0838               	movf	___fldiv@bexp,w
  3896     05D7  1903               	btfsc	3,2
  3897     05D8  2DDA               	goto	u217_21
  3898     05D9  2DDB               	goto	u217_20
  3899     05DA                     u217_21:
  3900     05DA  2DEB               	goto	i1l1753
  3901     05DB                     u217_20:
  3902     05DB                     i1l1745:
  3903     05DB  0A38               	incf	___fldiv@bexp,w
  3904     05DC  1D03               	btfss	3,2
  3905     05DD  2DDF               	goto	u218_21
  3906     05DE  2DE0               	goto	u218_20
  3907     05DF                     u218_21:
  3908     05DF  2DE8               	goto	i1l1749
  3909     05E0                     u218_20:
  3910     05E0                     i1l1747:
  3911     05E0  3000               	movlw	0
  3912     05E1  00A7               	movwf	___fldiv@b+3
  3913     05E2  3000               	movlw	0
  3914     05E3  00A6               	movwf	___fldiv@b+2
  3915     05E4  3000               	movlw	0
  3916     05E5  00A5               	movwf	___fldiv@b+1
  3917     05E6  3000               	movlw	0
  3918     05E7  00A4               	movwf	___fldiv@b
  3919     05E8                     i1l1749:
  3920     05E8  17A6               	bsf	___fldiv@b+2,7
  3921     05E9                     i1l1751:
  3922     05E9  01A7               	clrf	___fldiv@b+3
  3923     05EA  2DF3               	goto	i1l1755
  3924     05EB                     i1l1753:
  3925     05EB  3000               	movlw	0
  3926     05EC  00A7               	movwf	___fldiv@b+3
  3927     05ED  3000               	movlw	0
  3928     05EE  00A6               	movwf	___fldiv@b+2
  3929     05EF  3000               	movlw	0
  3930     05F0  00A5               	movwf	___fldiv@b+1
  3931     05F1  3000               	movlw	0
  3932     05F2  00A4               	movwf	___fldiv@b
  3933     05F3                     i1l1755:
  3934     05F3  0823               	movf	___fldiv@a+3,w
  3935     05F4  3980               	andlw	128
  3936     05F5  00A8               	movwf	??___fldiv
  3937     05F6  0828               	movf	??___fldiv,w
  3938     05F7  06B1               	xorwf	___fldiv@sign,f
  3939     05F8                     i1l1757:
  3940     05F8  0823               	movf	___fldiv@a+3,w
  3941     05F9  00A8               	movwf	??___fldiv
  3942     05FA  0728               	addwf	??___fldiv,w
  3943     05FB  00B9               	movwf	___fldiv@aexp
  3944     05FC                     i1l1759:
  3945     05FC  1FA2               	btfss	___fldiv@a+2,7
  3946     05FD  2DFF               	goto	u219_21
  3947     05FE  2E00               	goto	u219_20
  3948     05FF                     u219_21:
  3949     05FF  2E01               	goto	i1l1763
  3950     0600                     u219_20:
  3951     0600                     i1l1761:
  3952     0600  1439               	bsf	___fldiv@aexp,0
  3953     0601                     i1l1763:
  3954     0601  0839               	movf	___fldiv@aexp,w
  3955     0602  1903               	btfsc	3,2
  3956     0603  2E05               	goto	u220_21
  3957     0604  2E06               	goto	u220_20
  3958     0605                     u220_21:
  3959     0605  2E16               	goto	i1l1773
  3960     0606                     u220_20:
  3961     0606                     i1l1765:
  3962     0606  0A39               	incf	___fldiv@aexp,w
  3963     0607  1D03               	btfss	3,2
  3964     0608  2E0A               	goto	u221_21
  3965     0609  2E0B               	goto	u221_20
  3966     060A                     u221_21:
  3967     060A  2E13               	goto	i1l1769
  3968     060B                     u221_20:
  3969     060B                     i1l1767:
  3970     060B  3000               	movlw	0
  3971     060C  00A3               	movwf	___fldiv@a+3
  3972     060D  3000               	movlw	0
  3973     060E  00A2               	movwf	___fldiv@a+2
  3974     060F  3000               	movlw	0
  3975     0610  00A1               	movwf	___fldiv@a+1
  3976     0611  3000               	movlw	0
  3977     0612  00A0               	movwf	___fldiv@a
  3978     0613                     i1l1769:
  3979     0613  17A2               	bsf	___fldiv@a+2,7
  3980     0614                     i1l1771:
  3981     0614  01A3               	clrf	___fldiv@a+3
  3982     0615  2E1E               	goto	i1l602
  3983     0616                     i1l1773:
  3984     0616  3000               	movlw	0
  3985     0617  00A3               	movwf	___fldiv@a+3
  3986     0618  3000               	movlw	0
  3987     0619  00A2               	movwf	___fldiv@a+2
  3988     061A  3000               	movlw	0
  3989     061B  00A1               	movwf	___fldiv@a+1
  3990     061C  3000               	movlw	0
  3991     061D  00A0               	movwf	___fldiv@a
  3992     061E                     i1l602:
  3993     061E  0823               	movf	___fldiv@a+3,w
  3994     061F  0422               	iorwf	___fldiv@a+2,w
  3995     0620  0421               	iorwf	___fldiv@a+1,w
  3996     0621  0420               	iorwf	___fldiv@a,w
  3997     0622  1D03               	skipz
  3998     0623  2E25               	goto	u222_21
  3999     0624  2E26               	goto	u222_20
  4000     0625                     u222_21:
  4001     0625  2E3F               	goto	i1l1783
  4002     0626                     u222_20:
  4003     0626                     i1l1775:
  4004     0626  3000               	movlw	0
  4005     0627  00A7               	movwf	___fldiv@b+3
  4006     0628  3000               	movlw	0
  4007     0629  00A6               	movwf	___fldiv@b+2
  4008     062A  3000               	movlw	0
  4009     062B  00A5               	movwf	___fldiv@b+1
  4010     062C  3000               	movlw	0
  4011     062D  00A4               	movwf	___fldiv@b
  4012     062E  3080               	movlw	128
  4013     062F  04A6               	iorwf	___fldiv@b+2,f
  4014     0630  307F               	movlw	127
  4015     0631  04A7               	iorwf	___fldiv@b+3,f
  4016     0632                     i1l1777:
  4017     0632  0831               	movf	___fldiv@sign,w
  4018     0633  00A8               	movwf	??___fldiv
  4019     0634  0828               	movf	??___fldiv,w
  4020     0635  04A7               	iorwf	___fldiv@b+3,f
  4021     0636                     i1l1779:
  4022     0636  0827               	movf	___fldiv@b+3,w
  4023     0637  00A3               	movwf	?___fldiv+3
  4024     0638  0826               	movf	___fldiv@b+2,w
  4025     0639  00A2               	movwf	?___fldiv+2
  4026     063A  0825               	movf	___fldiv@b+1,w
  4027     063B  00A1               	movwf	?___fldiv+1
  4028     063C  0824               	movf	___fldiv@b,w
  4029     063D  00A0               	movwf	?___fldiv
  4030     063E  2F9A               	goto	i1l604
  4031     063F                     i1l1783:
  4032     063F  0838               	movf	___fldiv@bexp,w
  4033     0640  1D03               	btfss	3,2
  4034     0641  2E43               	goto	u223_21
  4035     0642  2E44               	goto	u223_20
  4036     0643                     u223_21:
  4037     0643  2E4D               	goto	i1l1789
  4038     0644                     u223_20:
  4039     0644                     i1l1785:
  4040     0644  3000               	movlw	0
  4041     0645  00A3               	movwf	?___fldiv+3
  4042     0646  3000               	movlw	0
  4043     0647  00A2               	movwf	?___fldiv+2
  4044     0648  3000               	movlw	0
  4045     0649  00A1               	movwf	?___fldiv+1
  4046     064A  3000               	movlw	0
  4047     064B  00A0               	movwf	?___fldiv
  4048     064C  2F9A               	goto	i1l604
  4049     064D                     i1l1789:
  4050     064D  0838               	movf	___fldiv@bexp,w
  4051     064E  00A8               	movwf	??___fldiv
  4052     064F  01A9               	clrf	??___fldiv+1
  4053     0650  0829               	movf	??___fldiv+1,w
  4054     0651  00AB               	movwf	??___fldiv+3
  4055     0652  0839               	movf	___fldiv@aexp,w
  4056     0653  0228               	subwf	??___fldiv,w
  4057     0654  00AA               	movwf	??___fldiv+2
  4058     0655  1C03               	skipc
  4059     0656  03AB               	decf	??___fldiv+3,f
  4060     0657  082A               	movf	??___fldiv+2,w
  4061     0658  3E7F               	addlw	127
  4062     0659  00B2               	movwf	___fldiv@new_exp
  4063     065A  082B               	movf	??___fldiv+3,w
  4064     065B  1803               	skipnc
  4065     065C  3E01               	addlw	1
  4066     065D  3E00               	addlw	0
  4067     065E  00B3               	movwf	___fldiv@new_exp+1
  4068     065F                     i1l1791:
  4069     065F  0827               	movf	___fldiv@b+3,w
  4070     0660  00B0               	movwf	___fldiv@rem+3
  4071     0661  0826               	movf	___fldiv@b+2,w
  4072     0662  00AF               	movwf	___fldiv@rem+2
  4073     0663  0825               	movf	___fldiv@b+1,w
  4074     0664  00AE               	movwf	___fldiv@rem+1
  4075     0665  0824               	movf	___fldiv@b,w
  4076     0666  00AD               	movwf	___fldiv@rem
  4077     0667                     i1l1793:
  4078     0667  3000               	movlw	0
  4079     0668  00A7               	movwf	___fldiv@b+3
  4080     0669  3000               	movlw	0
  4081     066A  00A6               	movwf	___fldiv@b+2
  4082     066B  3000               	movlw	0
  4083     066C  00A5               	movwf	___fldiv@b+1
  4084     066D  3000               	movlw	0
  4085     066E  00A4               	movwf	___fldiv@b
  4086     066F                     i1l1795:
  4087     066F  3000               	movlw	0
  4088     0670  00B7               	movwf	___fldiv@grs+3
  4089     0671  3000               	movlw	0
  4090     0672  00B6               	movwf	___fldiv@grs+2
  4091     0673  3000               	movlw	0
  4092     0674  00B5               	movwf	___fldiv@grs+1
  4093     0675  3000               	movlw	0
  4094     0676  00B4               	movwf	___fldiv@grs
  4095     0677                     i1l1797:
  4096     0677  01B9               	clrf	___fldiv@aexp
  4097     0678  2EC3               	goto	i1l1817
  4098     0679                     i1l1799:
  4099     0679  0839               	movf	___fldiv@aexp,w
  4100     067A  1903               	btfsc	3,2
  4101     067B  2E7D               	goto	u224_21
  4102     067C  2E7E               	goto	u224_20
  4103     067D                     u224_21:
  4104     067D  2E9E               	goto	i1l1809
  4105     067E                     u224_20:
  4106     067E                     i1l1801:
  4107     067E  3001               	movlw	1
  4108     067F  00A8               	movwf	??___fldiv
  4109     0680                     u225_25:
  4110     0680  1003               	clrc
  4111     0681  0DAD               	rlf	___fldiv@rem,f
  4112     0682  0DAE               	rlf	___fldiv@rem+1,f
  4113     0683  0DAF               	rlf	___fldiv@rem+2,f
  4114     0684  0DB0               	rlf	___fldiv@rem+3,f
  4115     0685  0BA8               	decfsz	??___fldiv,f
  4116     0686  2E80               	goto	u225_25
  4117     0687  3001               	movlw	1
  4118     0688  00A8               	movwf	??___fldiv
  4119     0689                     u226_25:
  4120     0689  1003               	clrc
  4121     068A  0DA4               	rlf	___fldiv@b,f
  4122     068B  0DA5               	rlf	___fldiv@b+1,f
  4123     068C  0DA6               	rlf	___fldiv@b+2,f
  4124     068D  0DA7               	rlf	___fldiv@b+3,f
  4125     068E  0BA8               	decfsz	??___fldiv,f
  4126     068F  2E89               	goto	u226_25
  4127     0690                     i1l1803:
  4128     0690  1FB7               	btfss	___fldiv@grs+3,7
  4129     0691  2E93               	goto	u227_21
  4130     0692  2E94               	goto	u227_20
  4131     0693                     u227_21:
  4132     0693  2E95               	goto	i1l1807
  4133     0694                     u227_20:
  4134     0694                     i1l1805:
  4135     0694  1424               	bsf	___fldiv@b,0
  4136     0695                     i1l1807:
  4137     0695  3001               	movlw	1
  4138     0696  00A8               	movwf	??___fldiv
  4139     0697                     u228_25:
  4140     0697  1003               	clrc
  4141     0698  0DB4               	rlf	___fldiv@grs,f
  4142     0699  0DB5               	rlf	___fldiv@grs+1,f
  4143     069A  0DB6               	rlf	___fldiv@grs+2,f
  4144     069B  0DB7               	rlf	___fldiv@grs+3,f
  4145     069C  0BA8               	decfsz	??___fldiv,f
  4146     069D  2E97               	goto	u228_25
  4147     069E                     i1l1809:
  4148     069E  0823               	movf	___fldiv@a+3,w
  4149     069F  0230               	subwf	___fldiv@rem+3,w
  4150     06A0  1D03               	skipz
  4151     06A1  2EAC               	goto	u229_25
  4152     06A2  0822               	movf	___fldiv@a+2,w
  4153     06A3  022F               	subwf	___fldiv@rem+2,w
  4154     06A4  1D03               	skipz
  4155     06A5  2EAC               	goto	u229_25
  4156     06A6  0821               	movf	___fldiv@a+1,w
  4157     06A7  022E               	subwf	___fldiv@rem+1,w
  4158     06A8  1D03               	skipz
  4159     06A9  2EAC               	goto	u229_25
  4160     06AA  0820               	movf	___fldiv@a,w
  4161     06AB  022D               	subwf	___fldiv@rem,w
  4162     06AC                     u229_25:
  4163     06AC  1C03               	skipc
  4164     06AD  2EAF               	goto	u229_21
  4165     06AE  2EB0               	goto	u229_20
  4166     06AF                     u229_21:
  4167     06AF  2EBF               	goto	i1l1815
  4168     06B0                     u229_20:
  4169     06B0                     i1l1811:
  4170     06B0  1737               	bsf	___fldiv@grs+3,6
  4171     06B1                     i1l1813:
  4172     06B1  0820               	movf	___fldiv@a,w
  4173     06B2  02AD               	subwf	___fldiv@rem,f
  4174     06B3  0821               	movf	___fldiv@a+1,w
  4175     06B4  1C03               	skipc
  4176     06B5  0F21               	incfsz	___fldiv@a+1,w
  4177     06B6  02AE               	subwf	___fldiv@rem+1,f
  4178     06B7  0822               	movf	___fldiv@a+2,w
  4179     06B8  1C03               	skipc
  4180     06B9  0F22               	incfsz	___fldiv@a+2,w
  4181     06BA  02AF               	subwf	___fldiv@rem+2,f
  4182     06BB  0823               	movf	___fldiv@a+3,w
  4183     06BC  1C03               	skipc
  4184     06BD  0F23               	incfsz	___fldiv@a+3,w
  4185     06BE  02B0               	subwf	___fldiv@rem+3,f
  4186     06BF                     i1l1815:
  4187     06BF  3001               	movlw	1
  4188     06C0  00A8               	movwf	??___fldiv
  4189     06C1  0828               	movf	??___fldiv,w
  4190     06C2  07B9               	addwf	___fldiv@aexp,f
  4191     06C3                     i1l1817:
  4192     06C3  301A               	movlw	26
  4193     06C4  0239               	subwf	___fldiv@aexp,w
  4194     06C5  1C03               	skipc
  4195     06C6  2EC8               	goto	u230_21
  4196     06C7  2EC9               	goto	u230_20
  4197     06C8                     u230_21:
  4198     06C8  2E79               	goto	i1l1799
  4199     06C9                     u230_20:
  4200     06C9                     i1l1819:
  4201     06C9  0830               	movf	___fldiv@rem+3,w
  4202     06CA  042F               	iorwf	___fldiv@rem+2,w
  4203     06CB  042E               	iorwf	___fldiv@rem+1,w
  4204     06CC  042D               	iorwf	___fldiv@rem,w
  4205     06CD  1903               	skipnz
  4206     06CE  2ED0               	goto	u231_21
  4207     06CF  2ED1               	goto	u231_20
  4208     06D0                     u231_21:
  4209     06D0  2EF0               	goto	i1l1833
  4210     06D1                     u231_20:
  4211     06D1                     i1l1821:
  4212     06D1  1434               	bsf	___fldiv@grs,0
  4213     06D2  2EF0               	goto	i1l1833
  4214     06D3                     i1l1823:
  4215     06D3  3001               	movlw	1
  4216     06D4  00A8               	movwf	??___fldiv
  4217     06D5                     u232_25:
  4218     06D5  1003               	clrc
  4219     06D6  0DA4               	rlf	___fldiv@b,f
  4220     06D7  0DA5               	rlf	___fldiv@b+1,f
  4221     06D8  0DA6               	rlf	___fldiv@b+2,f
  4222     06D9  0DA7               	rlf	___fldiv@b+3,f
  4223     06DA  0BA8               	decfsz	??___fldiv,f
  4224     06DB  2ED5               	goto	u232_25
  4225     06DC                     i1l1825:
  4226     06DC  1FB7               	btfss	___fldiv@grs+3,7
  4227     06DD  2EDF               	goto	u233_21
  4228     06DE  2EE0               	goto	u233_20
  4229     06DF                     u233_21:
  4230     06DF  2EE1               	goto	i1l1829
  4231     06E0                     u233_20:
  4232     06E0                     i1l1827:
  4233     06E0  1424               	bsf	___fldiv@b,0
  4234     06E1                     i1l1829:
  4235     06E1  3001               	movlw	1
  4236     06E2  00A8               	movwf	??___fldiv
  4237     06E3                     u234_25:
  4238     06E3  1003               	clrc
  4239     06E4  0DB4               	rlf	___fldiv@grs,f
  4240     06E5  0DB5               	rlf	___fldiv@grs+1,f
  4241     06E6  0DB6               	rlf	___fldiv@grs+2,f
  4242     06E7  0DB7               	rlf	___fldiv@grs+3,f
  4243     06E8  0BA8               	decfsz	??___fldiv,f
  4244     06E9  2EE3               	goto	u234_25
  4245     06EA                     i1l1831:
  4246     06EA  30FF               	movlw	255
  4247     06EB  07B2               	addwf	___fldiv@new_exp,f
  4248     06EC  1803               	skipnc
  4249     06ED  0AB3               	incf	___fldiv@new_exp+1,f
  4250     06EE  30FF               	movlw	255
  4251     06EF  07B3               	addwf	___fldiv@new_exp+1,f
  4252     06F0                     i1l1833:
  4253     06F0  1FA6               	btfss	___fldiv@b+2,7
  4254     06F1  2EF3               	goto	u235_21
  4255     06F2  2EF4               	goto	u235_20
  4256     06F3                     u235_21:
  4257     06F3  2ED3               	goto	i1l1823
  4258     06F4                     u235_20:
  4259     06F4                     i1l1835:
  4260     06F4  01B9               	clrf	___fldiv@aexp
  4261     06F5                     i1l1837:
  4262     06F5  1FB7               	btfss	___fldiv@grs+3,7
  4263     06F6  2EF8               	goto	u236_21
  4264     06F7  2EF9               	goto	u236_20
  4265     06F8                     u236_21:
  4266     06F8  2F15               	goto	i1l1845
  4267     06F9                     u236_20:
  4268     06F9                     i1l1839:
  4269     06F9  30FF               	movlw	255
  4270     06FA  0534               	andwf	___fldiv@grs,w
  4271     06FB  00A8               	movwf	??___fldiv
  4272     06FC  30FF               	movlw	255
  4273     06FD  0535               	andwf	___fldiv@grs+1,w
  4274     06FE  00A9               	movwf	??___fldiv+1
  4275     06FF  30FF               	movlw	255
  4276     0700  0536               	andwf	___fldiv@grs+2,w
  4277     0701  00AA               	movwf	??___fldiv+2
  4278     0702  307F               	movlw	127
  4279     0703  0537               	andwf	___fldiv@grs+3,w
  4280     0704  00AB               	movwf	??___fldiv+3
  4281     0705  082B               	movf	??___fldiv+3,w
  4282     0706  042A               	iorwf	??___fldiv+2,w
  4283     0707  0429               	iorwf	??___fldiv+1,w
  4284     0708  0428               	iorwf	??___fldiv,w
  4285     0709  1903               	skipnz
  4286     070A  2F0C               	goto	u237_21
  4287     070B  2F0D               	goto	u237_20
  4288     070C                     u237_21:
  4289     070C  2F10               	goto	i1l618
  4290     070D                     u237_20:
  4291     070D                     i1l1841:
  4292     070D  01B9               	clrf	___fldiv@aexp
  4293     070E  0AB9               	incf	___fldiv@aexp,f
  4294     070F  2F15               	goto	i1l1845
  4295     0710                     i1l618:
  4296     0710  1C24               	btfss	___fldiv@b,0
  4297     0711  2F13               	goto	u238_21
  4298     0712  2F14               	goto	u238_20
  4299     0713                     u238_21:
  4300     0713  2F15               	goto	i1l1845
  4301     0714                     u238_20:
  4302     0714  2F0D               	goto	i1l1841
  4303     0715                     i1l1845:
  4304     0715  0839               	movf	___fldiv@aexp,w
  4305     0716  1903               	btfsc	3,2
  4306     0717  2F19               	goto	u239_21
  4307     0718  2F1A               	goto	u239_20
  4308     0719                     u239_21:
  4309     0719  2F4B               	goto	i1l1855
  4310     071A                     u239_20:
  4311     071A                     i1l1847:
  4312     071A  3001               	movlw	1
  4313     071B  07A4               	addwf	___fldiv@b,f
  4314     071C  3000               	movlw	0
  4315     071D  1803               	skipnc
  4316     071E  3001               	movlw	1
  4317     071F  07A5               	addwf	___fldiv@b+1,f
  4318     0720  3000               	movlw	0
  4319     0721  1803               	skipnc
  4320     0722  3001               	movlw	1
  4321     0723  07A6               	addwf	___fldiv@b+2,f
  4322     0724  3000               	movlw	0
  4323     0725  1803               	skipnc
  4324     0726  3001               	movlw	1
  4325     0727  07A7               	addwf	___fldiv@b+3,f
  4326     0728                     i1l1849:
  4327     0728  1C27               	btfss	___fldiv@b+3,0
  4328     0729  2F2B               	goto	u240_21
  4329     072A  2F2C               	goto	u240_20
  4330     072B                     u240_21:
  4331     072B  2F4B               	goto	i1l1855
  4332     072C                     u240_20:
  4333     072C                     i1l1851:
  4334     072C  0824               	movf	___fldiv@b,w
  4335     072D  00A8               	movwf	??___fldiv
  4336     072E  0825               	movf	___fldiv@b+1,w
  4337     072F  00A9               	movwf	??___fldiv+1
  4338     0730  0826               	movf	___fldiv@b+2,w
  4339     0731  00AA               	movwf	??___fldiv+2
  4340     0732  0827               	movf	___fldiv@b+3,w
  4341     0733  00AB               	movwf	??___fldiv+3
  4342     0734  3001               	movlw	1
  4343     0735  00AC               	movwf	??___fldiv+4
  4344     0736                     u241_25:
  4345     0736  0D2B               	rlf	??___fldiv+3,w
  4346     0737  0CAB               	rrf	??___fldiv+3,f
  4347     0738  0CAA               	rrf	??___fldiv+2,f
  4348     0739  0CA9               	rrf	??___fldiv+1,f
  4349     073A  0CA8               	rrf	??___fldiv,f
  4350     073B                     u241_20:
  4351     073B  0BAC               	decfsz	??___fldiv+4,f
  4352     073C  2F36               	goto	u241_25
  4353     073D  082B               	movf	??___fldiv+3,w
  4354     073E  00A7               	movwf	___fldiv@b+3
  4355     073F  082A               	movf	??___fldiv+2,w
  4356     0740  00A6               	movwf	___fldiv@b+2
  4357     0741  0829               	movf	??___fldiv+1,w
  4358     0742  00A5               	movwf	___fldiv@b+1
  4359     0743  0828               	movf	??___fldiv,w
  4360     0744  00A4               	movwf	___fldiv@b
  4361     0745                     i1l1853:
  4362     0745  3001               	movlw	1
  4363     0746  07B2               	addwf	___fldiv@new_exp,f
  4364     0747  1803               	skipnc
  4365     0748  0AB3               	incf	___fldiv@new_exp+1,f
  4366     0749  3000               	movlw	0
  4367     074A  07B3               	addwf	___fldiv@new_exp+1,f
  4368     074B                     i1l1855:
  4369     074B  0833               	movf	___fldiv@new_exp+1,w
  4370     074C  3A80               	xorlw	128
  4371     074D  00FF               	movwf	btemp+1
  4372     074E  3080               	movlw	128
  4373     074F  027F               	subwf	btemp+1,w
  4374     0750  1D03               	skipz
  4375     0751  2F54               	goto	u242_25
  4376     0752  30FF               	movlw	255
  4377     0753  0232               	subwf	___fldiv@new_exp,w
  4378     0754                     u242_25:
  4379     0754  1C03               	skipc
  4380     0755  2F57               	goto	u242_21
  4381     0756  2F58               	goto	u242_20
  4382     0757                     u242_21:
  4383     0757  2F66               	goto	i1l1859
  4384     0758                     u242_20:
  4385     0758                     i1l1857:
  4386     0758  30FF               	movlw	255
  4387     0759  1283               	bcf	3,5	;RP0=0, select bank0
  4388     075A  1303               	bcf	3,6	;RP1=0, select bank0
  4389     075B  00B2               	movwf	___fldiv@new_exp
  4390     075C  3000               	movlw	0
  4391     075D  00B3               	movwf	___fldiv@new_exp+1
  4392     075E  3000               	movlw	0
  4393     075F  00A7               	movwf	___fldiv@b+3
  4394     0760  3000               	movlw	0
  4395     0761  00A6               	movwf	___fldiv@b+2
  4396     0762  3000               	movlw	0
  4397     0763  00A5               	movwf	___fldiv@b+1
  4398     0764  3000               	movlw	0
  4399     0765  00A4               	movwf	___fldiv@b
  4400     0766                     i1l1859:
  4401     0766  1283               	bcf	3,5	;RP0=0, select bank0
  4402     0767  1303               	bcf	3,6	;RP1=0, select bank0
  4403     0768  0833               	movf	___fldiv@new_exp+1,w
  4404     0769  3A80               	xorlw	128
  4405     076A  00FF               	movwf	btemp+1
  4406     076B  3080               	movlw	128
  4407     076C  027F               	subwf	btemp+1,w
  4408     076D  1D03               	skipz
  4409     076E  2F71               	goto	u243_25
  4410     076F  3001               	movlw	1
  4411     0770  0232               	subwf	___fldiv@new_exp,w
  4412     0771                     u243_25:
  4413     0771  1803               	skipnc
  4414     0772  2F74               	goto	u243_21
  4415     0773  2F75               	goto	u243_20
  4416     0774                     u243_21:
  4417     0774  2F82               	goto	i1l624
  4418     0775                     u243_20:
  4419     0775                     i1l1861:
  4420     0775  1283               	bcf	3,5	;RP0=0, select bank0
  4421     0776  1303               	bcf	3,6	;RP1=0, select bank0
  4422     0777  01B2               	clrf	___fldiv@new_exp
  4423     0778  01B3               	clrf	___fldiv@new_exp+1
  4424     0779                     i1l1863:
  4425     0779  3000               	movlw	0
  4426     077A  00A7               	movwf	___fldiv@b+3
  4427     077B  3000               	movlw	0
  4428     077C  00A6               	movwf	___fldiv@b+2
  4429     077D  3000               	movlw	0
  4430     077E  00A5               	movwf	___fldiv@b+1
  4431     077F  3000               	movlw	0
  4432     0780  00A4               	movwf	___fldiv@b
  4433     0781                     i1l1865:
  4434     0781  01B1               	clrf	___fldiv@sign
  4435     0782                     i1l624:
  4436     0782  1283               	bcf	3,5	;RP0=0, select bank0
  4437     0783  1303               	bcf	3,6	;RP1=0, select bank0
  4438     0784  0832               	movf	___fldiv@new_exp,w
  4439     0785  00B8               	movwf	___fldiv@bexp
  4440     0786                     i1l1867:
  4441     0786  1C38               	btfss	___fldiv@bexp,0
  4442     0787  2F89               	goto	u244_21
  4443     0788  2F8A               	goto	u244_20
  4444     0789                     u244_21:
  4445     0789  2F8C               	goto	i1l1871
  4446     078A                     u244_20:
  4447     078A                     i1l1869:
  4448     078A  17A6               	bsf	___fldiv@b+2,7
  4449     078B  2F90               	goto	i1l626
  4450     078C                     i1l1871:
  4451     078C  307F               	movlw	127
  4452     078D  00A8               	movwf	??___fldiv
  4453     078E  0828               	movf	??___fldiv,w
  4454     078F  05A6               	andwf	___fldiv@b+2,f
  4455     0790                     i1l626:
  4456     0790  0838               	movf	___fldiv@bexp,w
  4457     0791  00A8               	movwf	??___fldiv
  4458     0792  1003               	clrc
  4459     0793  0C28               	rrf	??___fldiv,w
  4460     0794  00A7               	movwf	___fldiv@b+3
  4461     0795  0831               	movf	___fldiv@sign,w
  4462     0796  00A8               	movwf	??___fldiv
  4463     0797  0828               	movf	??___fldiv,w
  4464     0798  04A7               	iorwf	___fldiv@b+3,f
  4465     0799  2E36               	goto	i1l1779
  4466     079A                     i1l604:
  4467     079A  0008               	return
  4468     079B                     __end_of___fldiv:
  4469                           
  4470                           	psect	text15
  4471     0370                     __ptext15:	
  4472 ;; *************** function ___fladd *****************
  4473 ;; Defined at:
  4474 ;;		line 10 in file "C:\Program Files\Microchip\xc8\v2.40\pic\sources\c90\common\sprcadd.c"
  4475 ;; Parameters:    Size  Location     Type
  4476 ;;  b               4   52[BANK0 ] unsigned char 
  4477 ;;  a               4   56[BANK0 ] unsigned char 
  4478 ;; Auto vars:     Size  Location     Type
  4479 ;;  grs             1   71[BANK0 ] unsigned char 
  4480 ;;  bexp            1   70[BANK0 ] unsigned char 
  4481 ;;  aexp            1   69[BANK0 ] unsigned char 
  4482 ;;  signs           1   68[BANK0 ] unsigned char 
  4483 ;; Return value:  Size  Location     Type
  4484 ;;                  4   52[BANK0 ] unsigned char 
  4485 ;; Registers used:
  4486 ;;		wreg, status,2, status,0, btemp+1
  4487 ;; Tracked objects:
  4488 ;;		On entry : 0/0
  4489 ;;		On exit  : 0/0
  4490 ;;		Unchanged: 0/0
  4491 ;; Data sizes:     COMMON   BANK0   BANK1   BANK3   BANK2
  4492 ;;      Params:         0       8       0       0       0
  4493 ;;      Locals:         0       4       0       0       0
  4494 ;;      Temps:          0       8       0       0       0
  4495 ;;      Totals:         0      20       0       0       0
  4496 ;;Total ram usage:       20 bytes
  4497 ;; Hardware stack levels used: 1
  4498 ;; This function calls:
  4499 ;;		Nothing
  4500 ;; This function is called by:
  4501 ;;		_map
  4502 ;; This function uses a non-reentrant model
  4503 ;;
  4504                           
  4505     0370                     ___fladd:	
  4506                           ;psect for function ___fladd
  4507                           
  4508     0370                     i1l1541:	
  4509                           ;incstack = 0
  4510                           ; Regs used in ___fladd: [wreg+status,2+status,0+btemp+1]
  4511                           
  4512     0370  1283               	bcf	3,5	;RP0=0, select bank0
  4513     0371  1303               	bcf	3,6	;RP1=0, select bank0
  4514     0372  0857               	movf	___fladd@b+3,w
  4515     0373  3980               	andlw	128
  4516     0374  00E4               	movwf	___fladd@signs
  4517     0375                     i1l1543:
  4518     0375  0857               	movf	___fladd@b+3,w
  4519     0376  00DC               	movwf	??___fladd
  4520     0377  075C               	addwf	??___fladd,w
  4521     0378  00E6               	movwf	___fladd@bexp
  4522     0379                     i1l1545:
  4523     0379  1FD6               	btfss	___fladd@b+2,7
  4524     037A  2B7C               	goto	u170_21
  4525     037B  2B7D               	goto	u170_20
  4526     037C                     u170_21:
  4527     037C  2B7E               	goto	i1l1549
  4528     037D                     u170_20:
  4529     037D                     i1l1547:
  4530     037D  1466               	bsf	___fladd@bexp,0
  4531     037E                     i1l1549:
  4532     037E  0866               	movf	___fladd@bexp,w
  4533     037F  1903               	btfsc	3,2
  4534     0380  2B82               	goto	u171_21
  4535     0381  2B83               	goto	u171_20
  4536     0382                     u171_21:
  4537     0382  2B93               	goto	i1l1559
  4538     0383                     u171_20:
  4539     0383                     i1l1551:
  4540     0383  0A66               	incf	___fladd@bexp,w
  4541     0384  1D03               	btfss	3,2
  4542     0385  2B87               	goto	u172_21
  4543     0386  2B88               	goto	u172_20
  4544     0387                     u172_21:
  4545     0387  2B90               	goto	i1l1555
  4546     0388                     u172_20:
  4547     0388                     i1l1553:
  4548     0388  3000               	movlw	0
  4549     0389  00D7               	movwf	___fladd@b+3
  4550     038A  3000               	movlw	0
  4551     038B  00D6               	movwf	___fladd@b+2
  4552     038C  3000               	movlw	0
  4553     038D  00D5               	movwf	___fladd@b+1
  4554     038E  3000               	movlw	0
  4555     038F  00D4               	movwf	___fladd@b
  4556     0390                     i1l1555:
  4557     0390  17D6               	bsf	___fladd@b+2,7
  4558     0391                     i1l1557:
  4559     0391  01D7               	clrf	___fladd@b+3
  4560     0392  2B9B               	goto	i1l1561
  4561     0393                     i1l1559:
  4562     0393  3000               	movlw	0
  4563     0394  00D7               	movwf	___fladd@b+3
  4564     0395  3000               	movlw	0
  4565     0396  00D6               	movwf	___fladd@b+2
  4566     0397  3000               	movlw	0
  4567     0398  00D5               	movwf	___fladd@b+1
  4568     0399  3000               	movlw	0
  4569     039A  00D4               	movwf	___fladd@b
  4570     039B                     i1l1561:
  4571     039B  085B               	movf	___fladd@a+3,w
  4572     039C  3980               	andlw	128
  4573     039D  00E5               	movwf	___fladd@aexp
  4574     039E                     i1l1563:
  4575     039E  0865               	movf	___fladd@aexp,w
  4576     039F  0664               	xorwf	___fladd@signs,w
  4577     03A0  1903               	skipnz
  4578     03A1  2BA3               	goto	u173_21
  4579     03A2  2BA4               	goto	u173_20
  4580     03A3                     u173_21:
  4581     03A3  2BA5               	goto	i1l1567
  4582     03A4                     u173_20:
  4583     03A4                     i1l1565:
  4584     03A4  1764               	bsf	___fladd@signs,6
  4585     03A5                     i1l1567:
  4586     03A5  085B               	movf	___fladd@a+3,w
  4587     03A6  00DC               	movwf	??___fladd
  4588     03A7  075C               	addwf	??___fladd,w
  4589     03A8  00E5               	movwf	___fladd@aexp
  4590     03A9                     i1l1569:
  4591     03A9  1FDA               	btfss	___fladd@a+2,7
  4592     03AA  2BAC               	goto	u174_21
  4593     03AB  2BAD               	goto	u174_20
  4594     03AC                     u174_21:
  4595     03AC  2BAE               	goto	i1l1573
  4596     03AD                     u174_20:
  4597     03AD                     i1l1571:
  4598     03AD  1465               	bsf	___fladd@aexp,0
  4599     03AE                     i1l1573:
  4600     03AE  0865               	movf	___fladd@aexp,w
  4601     03AF  1903               	btfsc	3,2
  4602     03B0  2BB2               	goto	u175_21
  4603     03B1  2BB3               	goto	u175_20
  4604     03B2                     u175_21:
  4605     03B2  2BC3               	goto	i1l1583
  4606     03B3                     u175_20:
  4607     03B3                     i1l1575:
  4608     03B3  0A65               	incf	___fladd@aexp,w
  4609     03B4  1D03               	btfss	3,2
  4610     03B5  2BB7               	goto	u176_21
  4611     03B6  2BB8               	goto	u176_20
  4612     03B7                     u176_21:
  4613     03B7  2BC0               	goto	i1l1579
  4614     03B8                     u176_20:
  4615     03B8                     i1l1577:
  4616     03B8  3000               	movlw	0
  4617     03B9  00DB               	movwf	___fladd@a+3
  4618     03BA  3000               	movlw	0
  4619     03BB  00DA               	movwf	___fladd@a+2
  4620     03BC  3000               	movlw	0
  4621     03BD  00D9               	movwf	___fladd@a+1
  4622     03BE  3000               	movlw	0
  4623     03BF  00D8               	movwf	___fladd@a
  4624     03C0                     i1l1579:
  4625     03C0  17DA               	bsf	___fladd@a+2,7
  4626     03C1                     i1l1581:
  4627     03C1  01DB               	clrf	___fladd@a+3
  4628     03C2  2BCB               	goto	i1l546
  4629     03C3                     i1l1583:
  4630     03C3  3000               	movlw	0
  4631     03C4  00DB               	movwf	___fladd@a+3
  4632     03C5  3000               	movlw	0
  4633     03C6  00DA               	movwf	___fladd@a+2
  4634     03C7  3000               	movlw	0
  4635     03C8  00D9               	movwf	___fladd@a+1
  4636     03C9  3000               	movlw	0
  4637     03CA  00D8               	movwf	___fladd@a
  4638     03CB                     i1l546:
  4639     03CB  0866               	movf	___fladd@bexp,w
  4640     03CC  0265               	subwf	___fladd@aexp,w
  4641     03CD  1803               	skipnc
  4642     03CE  2BD0               	goto	u177_21
  4643     03CF  2BD1               	goto	u177_20
  4644     03D0                     u177_21:
  4645     03D0  2BF7               	goto	i1l1619
  4646     03D1                     u177_20:
  4647     03D1                     i1l1585:
  4648     03D1  1F64               	btfss	___fladd@signs,6
  4649     03D2  2BD4               	goto	u178_21
  4650     03D3  2BD5               	goto	u178_20
  4651     03D4                     u178_21:
  4652     03D4  2BD9               	goto	i1l1589
  4653     03D5                     u178_20:
  4654     03D5                     i1l1587:
  4655     03D5  3080               	movlw	128
  4656     03D6  00DC               	movwf	??___fladd
  4657     03D7  085C               	movf	??___fladd,w
  4658     03D8  06E4               	xorwf	___fladd@signs,f
  4659     03D9                     i1l1589:
  4660     03D9  0866               	movf	___fladd@bexp,w
  4661     03DA  00E7               	movwf	___fladd@grs
  4662     03DB                     i1l1591:
  4663     03DB  0865               	movf	___fladd@aexp,w
  4664     03DC  00E6               	movwf	___fladd@bexp
  4665     03DD                     i1l1593:
  4666     03DD  0867               	movf	___fladd@grs,w
  4667     03DE  00E5               	movwf	___fladd@aexp
  4668     03DF                     i1l1595:
  4669     03DF  0854               	movf	___fladd@b,w
  4670     03E0  00E7               	movwf	___fladd@grs
  4671     03E1                     i1l1597:
  4672     03E1  0858               	movf	___fladd@a,w
  4673     03E2  00D4               	movwf	___fladd@b
  4674     03E3                     i1l1599:
  4675     03E3  0867               	movf	___fladd@grs,w
  4676     03E4  00D8               	movwf	___fladd@a
  4677     03E5                     i1l1601:
  4678     03E5  0855               	movf	___fladd@b+1,w
  4679     03E6  00E7               	movwf	___fladd@grs
  4680     03E7                     i1l1603:
  4681     03E7  0859               	movf	___fladd@a+1,w
  4682     03E8  00D5               	movwf	___fladd@b+1
  4683     03E9                     i1l1605:
  4684     03E9  0867               	movf	___fladd@grs,w
  4685     03EA  00D9               	movwf	___fladd@a+1
  4686     03EB                     i1l1607:
  4687     03EB  0856               	movf	___fladd@b+2,w
  4688     03EC  00E7               	movwf	___fladd@grs
  4689     03ED                     i1l1609:
  4690     03ED  085A               	movf	___fladd@a+2,w
  4691     03EE  00D6               	movwf	___fladd@b+2
  4692     03EF                     i1l1611:
  4693     03EF  0867               	movf	___fladd@grs,w
  4694     03F0  00DA               	movwf	___fladd@a+2
  4695     03F1                     i1l1613:
  4696     03F1  0857               	movf	___fladd@b+3,w
  4697     03F2  00E7               	movwf	___fladd@grs
  4698     03F3                     i1l1615:
  4699     03F3  085B               	movf	___fladd@a+3,w
  4700     03F4  00D7               	movwf	___fladd@b+3
  4701     03F5                     i1l1617:
  4702     03F5  0867               	movf	___fladd@grs,w
  4703     03F6  00DB               	movwf	___fladd@a+3
  4704     03F7                     i1l1619:
  4705     03F7  01E7               	clrf	___fladd@grs
  4706     03F8                     i1l1621:
  4707     03F8  0865               	movf	___fladd@aexp,w
  4708     03F9  00DC               	movwf	??___fladd
  4709     03FA  01DD               	clrf	??___fladd+1
  4710     03FB  085D               	movf	??___fladd+1,w
  4711     03FC  00DF               	movwf	??___fladd+3
  4712     03FD  0866               	movf	___fladd@bexp,w
  4713     03FE  025C               	subwf	??___fladd,w
  4714     03FF  00DE               	movwf	??___fladd+2
  4715     0400  1C03               	skipc
  4716     0401  03DF               	decf	??___fladd+3,f
  4717     0402  085F               	movf	??___fladd+3,w
  4718     0403  3A80               	xorlw	128
  4719     0404  00FF               	movwf	btemp+1
  4720     0405  3080               	movlw	128
  4721     0406  027F               	subwf	btemp+1,w
  4722     0407  1D03               	skipz
  4723     0408  2C0B               	goto	u179_25
  4724     0409  301A               	movlw	26
  4725     040A  025E               	subwf	??___fladd+2,w
  4726     040B                     u179_25:
  4727     040B  1C03               	skipc
  4728     040C  2C0E               	goto	u179_21
  4729     040D  2C0F               	goto	u179_20
  4730     040E                     u179_21:
  4731     040E  2C46               	goto	i1l1637
  4732     040F                     u179_20:
  4733     040F                     i1l1623:
  4734     040F  1283               	bcf	3,5	;RP0=0, select bank0
  4735     0410  1303               	bcf	3,6	;RP1=0, select bank0
  4736     0411  0857               	movf	___fladd@b+3,w
  4737     0412  0456               	iorwf	___fladd@b+2,w
  4738     0413  0455               	iorwf	___fladd@b+1,w
  4739     0414  0454               	iorwf	___fladd@b,w
  4740     0415  1D03               	skipz
  4741     0416  2C18               	goto	u180_21
  4742     0417  2C1A               	goto	u180_20
  4743     0418                     u180_21:
  4744     0418  3001               	movlw	1
  4745     0419  2C1B               	goto	u181_20
  4746     041A                     u180_20:
  4747     041A  3000               	movlw	0
  4748     041B                     u181_20:
  4749     041B  00E7               	movwf	___fladd@grs
  4750     041C  3000               	movlw	0
  4751     041D  00D7               	movwf	___fladd@b+3
  4752     041E  3000               	movlw	0
  4753     041F  00D6               	movwf	___fladd@b+2
  4754     0420  3000               	movlw	0
  4755     0421  00D5               	movwf	___fladd@b+1
  4756     0422  3000               	movlw	0
  4757     0423  00D4               	movwf	___fladd@b
  4758     0424  0865               	movf	___fladd@aexp,w
  4759     0425  00E6               	movwf	___fladd@bexp
  4760     0426  2C4E               	goto	i1l550
  4761     0427                     i1l552:
  4762     0427  1C67               	btfss	___fladd@grs,0
  4763     0428  2C2A               	goto	u182_21
  4764     0429  2C2B               	goto	u182_20
  4765     042A                     u182_21:
  4766     042A  2C32               	goto	i1l1627
  4767     042B                     u182_20:
  4768     042B                     i1l1625:
  4769     042B  0867               	movf	___fladd@grs,w
  4770     042C  00DC               	movwf	??___fladd
  4771     042D  1003               	clrc
  4772     042E  0C5C               	rrf	??___fladd,w
  4773     042F  3801               	iorlw	1
  4774     0430  00E7               	movwf	___fladd@grs
  4775     0431  2C34               	goto	i1l1629
  4776     0432                     i1l1627:
  4777     0432  1003               	clrc
  4778     0433  0CE7               	rrf	___fladd@grs,f
  4779     0434                     i1l1629:
  4780     0434  1C54               	btfss	___fladd@b,0
  4781     0435  2C37               	goto	u183_21
  4782     0436  2C38               	goto	u183_20
  4783     0437                     u183_21:
  4784     0437  2C39               	goto	i1l1633
  4785     0438                     u183_20:
  4786     0438                     i1l1631:
  4787     0438  17E7               	bsf	___fladd@grs,7
  4788     0439                     i1l1633:
  4789     0439  3001               	movlw	1
  4790     043A  00DC               	movwf	??___fladd
  4791     043B                     u184_25:
  4792     043B  0D57               	rlf	___fladd@b+3,w
  4793     043C  0CD7               	rrf	___fladd@b+3,f
  4794     043D  0CD6               	rrf	___fladd@b+2,f
  4795     043E  0CD5               	rrf	___fladd@b+1,f
  4796     043F  0CD4               	rrf	___fladd@b,f
  4797     0440  0BDC               	decfsz	??___fladd& (0+127),f
  4798     0441  2C3B               	goto	u184_25
  4799     0442                     i1l1635:
  4800     0442  3001               	movlw	1
  4801     0443  00DC               	movwf	??___fladd
  4802     0444  085C               	movf	??___fladd,w
  4803     0445  07E6               	addwf	___fladd@bexp,f
  4804     0446                     i1l1637:
  4805     0446  1283               	bcf	3,5	;RP0=0, select bank0
  4806     0447  1303               	bcf	3,6	;RP1=0, select bank0
  4807     0448  0865               	movf	___fladd@aexp,w
  4808     0449  0266               	subwf	___fladd@bexp,w
  4809     044A  1C03               	skipc
  4810     044B  2C4D               	goto	u185_21
  4811     044C  2C4E               	goto	u185_20
  4812     044D                     u185_21:
  4813     044D  2C27               	goto	i1l552
  4814     044E                     u185_20:
  4815     044E                     i1l550:
  4816     044E  1B64               	btfsc	___fladd@signs,6
  4817     044F  2C51               	goto	u186_21
  4818     0450  2C52               	goto	u186_20
  4819     0451                     u186_21:
  4820     0451  2C9B               	goto	i1l1663
  4821     0452                     u186_20:
  4822     0452                     i1l1639:
  4823     0452  0866               	movf	___fladd@bexp,w
  4824     0453  1D03               	btfss	3,2
  4825     0454  2C56               	goto	u187_21
  4826     0455  2C57               	goto	u187_20
  4827     0456                     u187_21:
  4828     0456  2C60               	goto	i1l1645
  4829     0457                     u187_20:
  4830     0457                     i1l1641:
  4831     0457  3000               	movlw	0
  4832     0458  00D7               	movwf	?___fladd+3
  4833     0459  3000               	movlw	0
  4834     045A  00D6               	movwf	?___fladd+2
  4835     045B  3000               	movlw	0
  4836     045C  00D5               	movwf	?___fladd+1
  4837     045D  3000               	movlw	0
  4838     045E  00D4               	movwf	?___fladd
  4839     045F  2DC7               	goto	i1l559
  4840     0460                     i1l1645:
  4841     0460  0858               	movf	___fladd@a,w
  4842     0461  07D4               	addwf	___fladd@b,f
  4843     0462  0859               	movf	___fladd@a+1,w
  4844     0463  1103               	clrz
  4845     0464  1803               	skipnc
  4846     0465  3E01               	addlw	1
  4847     0466  1903               	skipnz
  4848     0467  2C69               	goto	u188_21
  4849     0468  07D5               	addwf	___fladd@b+1,f
  4850     0469                     u188_21:
  4851     0469  085A               	movf	___fladd@a+2,w
  4852     046A  1103               	clrz
  4853     046B  1803               	skipnc
  4854     046C  3E01               	addlw	1
  4855     046D  1903               	skipnz
  4856     046E  2C70               	goto	u188_22
  4857     046F  07D6               	addwf	___fladd@b+2,f
  4858     0470                     u188_22:
  4859     0470  085B               	movf	___fladd@a+3,w
  4860     0471  1103               	clrz
  4861     0472  1803               	skipnc
  4862     0473  3E01               	addlw	1
  4863     0474  1903               	skipnz
  4864     0475  2C77               	goto	u188_23
  4865     0476  07D7               	addwf	___fladd@b+3,f
  4866     0477                     u188_23:
  4867     0477                     i1l1647:
  4868     0477  1C57               	btfss	___fladd@b+3,0
  4869     0478  2C7A               	goto	u189_21
  4870     0479  2C7B               	goto	u189_20
  4871     047A                     u189_21:
  4872     047A  2D4F               	goto	i1l1697
  4873     047B                     u189_20:
  4874     047B                     i1l1649:
  4875     047B  1C67               	btfss	___fladd@grs,0
  4876     047C  2C7E               	goto	u190_21
  4877     047D  2C7F               	goto	u190_20
  4878     047E                     u190_21:
  4879     047E  2C86               	goto	i1l1653
  4880     047F                     u190_20:
  4881     047F                     i1l1651:
  4882     047F  0867               	movf	___fladd@grs,w
  4883     0480  00DC               	movwf	??___fladd
  4884     0481  1003               	clrc
  4885     0482  0C5C               	rrf	??___fladd,w
  4886     0483  3801               	iorlw	1
  4887     0484  00E7               	movwf	___fladd@grs
  4888     0485  2C88               	goto	i1l1655
  4889     0486                     i1l1653:
  4890     0486  1003               	clrc
  4891     0487  0CE7               	rrf	___fladd@grs,f
  4892     0488                     i1l1655:
  4893     0488  1C54               	btfss	___fladd@b,0
  4894     0489  2C8B               	goto	u191_21
  4895     048A  2C8C               	goto	u191_20
  4896     048B                     u191_21:
  4897     048B  2C8D               	goto	i1l1659
  4898     048C                     u191_20:
  4899     048C                     i1l1657:
  4900     048C  17E7               	bsf	___fladd@grs,7
  4901     048D                     i1l1659:
  4902     048D  3001               	movlw	1
  4903     048E  00DC               	movwf	??___fladd
  4904     048F                     u192_25:
  4905     048F  0D57               	rlf	___fladd@b+3,w
  4906     0490  0CD7               	rrf	___fladd@b+3,f
  4907     0491  0CD6               	rrf	___fladd@b+2,f
  4908     0492  0CD5               	rrf	___fladd@b+1,f
  4909     0493  0CD4               	rrf	___fladd@b,f
  4910     0494  0BDC               	decfsz	??___fladd& (0+127),f
  4911     0495  2C8F               	goto	u192_25
  4912     0496                     i1l1661:
  4913     0496  3001               	movlw	1
  4914     0497  00DC               	movwf	??___fladd
  4915     0498  085C               	movf	??___fladd,w
  4916     0499  07E6               	addwf	___fladd@bexp,f
  4917     049A  2D4F               	goto	i1l1697
  4918     049B                     i1l1663:
  4919     049B  0857               	movf	___fladd@b+3,w
  4920     049C  3A80               	xorlw	128
  4921     049D  00FF               	movwf	btemp+1
  4922     049E  085B               	movf	___fladd@a+3,w
  4923     049F  3A80               	xorlw	128
  4924     04A0  027F               	subwf	btemp+1,w
  4925     04A1  1D03               	skipz
  4926     04A2  2CAD               	goto	u193_23
  4927     04A3  085A               	movf	___fladd@a+2,w
  4928     04A4  0256               	subwf	___fladd@b+2,w
  4929     04A5  1D03               	skipz
  4930     04A6  2CAD               	goto	u193_23
  4931     04A7  0859               	movf	___fladd@a+1,w
  4932     04A8  0255               	subwf	___fladd@b+1,w
  4933     04A9  1D03               	skipz
  4934     04AA  2CAD               	goto	u193_23
  4935     04AB  0858               	movf	___fladd@a,w
  4936     04AC  0254               	subwf	___fladd@b,w
  4937     04AD                     u193_23:
  4938     04AD  1803               	skipnc
  4939     04AE  2CB0               	goto	u193_21
  4940     04AF  2CB1               	goto	u193_20
  4941     04B0                     u193_21:
  4942     04B0  2D09               	goto	i1l1673
  4943     04B1                     u193_20:
  4944     04B1                     i1l1665:
  4945     04B1  30FF               	movlw	255
  4946     04B2  00DC               	movwf	??___fladd
  4947     04B3  30FF               	movlw	255
  4948     04B4  00DD               	movwf	??___fladd+1
  4949     04B5  30FF               	movlw	255
  4950     04B6  00DE               	movwf	??___fladd+2
  4951     04B7  30FF               	movlw	255
  4952     04B8  00DF               	movwf	??___fladd+3
  4953     04B9  0858               	movf	___fladd@a,w
  4954     04BA  00E0               	movwf	??___fladd+4
  4955     04BB  0859               	movf	___fladd@a+1,w
  4956     04BC  00E1               	movwf	??___fladd+5
  4957     04BD  085A               	movf	___fladd@a+2,w
  4958     04BE  00E2               	movwf	??___fladd+6
  4959     04BF  085B               	movf	___fladd@a+3,w
  4960     04C0  00E3               	movwf	??___fladd+7
  4961     04C1  0854               	movf	___fladd@b,w
  4962     04C2  02E0               	subwf	??___fladd+4,f
  4963     04C3  0855               	movf	___fladd@b+1,w
  4964     04C4  1C03               	skipc
  4965     04C5  0F55               	incfsz	___fladd@b+1,w
  4966     04C6  2CC8               	goto	u194_21
  4967     04C7  2CC9               	goto	u194_22
  4968     04C8                     u194_21:
  4969     04C8  02E1               	subwf	??___fladd+5,f
  4970     04C9                     u194_22:
  4971     04C9  0856               	movf	___fladd@b+2,w
  4972     04CA  1C03               	skipc
  4973     04CB  0F56               	incfsz	___fladd@b+2,w
  4974     04CC  2CCE               	goto	u194_23
  4975     04CD  2CCF               	goto	u194_24
  4976     04CE                     u194_23:
  4977     04CE  02E2               	subwf	??___fladd+6,f
  4978     04CF                     u194_24:
  4979     04CF  0857               	movf	___fladd@b+3,w
  4980     04D0  1C03               	skipc
  4981     04D1  0F57               	incfsz	___fladd@b+3,w
  4982     04D2  2CD4               	goto	u194_25
  4983     04D3  2CD5               	goto	u194_26
  4984     04D4                     u194_25:
  4985     04D4  02E3               	subwf	??___fladd+7,f
  4986     04D5                     u194_26:
  4987     04D5  0860               	movf	??___fladd+4,w
  4988     04D6  07DC               	addwf	??___fladd,f
  4989     04D7  0861               	movf	??___fladd+5,w
  4990     04D8  1803               	skipnc
  4991     04D9  0F61               	incfsz	??___fladd+5,w
  4992     04DA  2CDC               	goto	u195_20
  4993     04DB  2CDD               	goto	u195_21
  4994     04DC                     u195_20:
  4995     04DC  07DD               	addwf	??___fladd+1,f
  4996     04DD                     u195_21:
  4997     04DD  0862               	movf	??___fladd+6,w
  4998     04DE  1803               	skipnc
  4999     04DF  0F62               	incfsz	??___fladd+6,w
  5000     04E0  2CE2               	goto	u195_22
  5001     04E1  2CE3               	goto	u195_23
  5002     04E2                     u195_22:
  5003     04E2  07DE               	addwf	??___fladd+2,f
  5004     04E3                     u195_23:
  5005     04E3  0863               	movf	??___fladd+7,w
  5006     04E4  1803               	skipnc
  5007     04E5  0A63               	incf	??___fladd+7,w
  5008     04E6  07DF               	addwf	??___fladd+3,f
  5009     04E7  085F               	movf	??___fladd+3,w
  5010     04E8  00D7               	movwf	___fladd@b+3
  5011     04E9  085E               	movf	??___fladd+2,w
  5012     04EA  00D6               	movwf	___fladd@b+2
  5013     04EB  085D               	movf	??___fladd+1,w
  5014     04EC  00D5               	movwf	___fladd@b+1
  5015     04ED  085C               	movf	??___fladd,w
  5016     04EE  00D4               	movwf	___fladd@b
  5017     04EF                     i1l1667:
  5018     04EF  3080               	movlw	128
  5019     04F0  00DC               	movwf	??___fladd
  5020     04F1  085C               	movf	??___fladd,w
  5021     04F2  06E4               	xorwf	___fladd@signs,f
  5022     04F3  09E7               	comf	___fladd@grs,f
  5023     04F4  0AE7               	incf	___fladd@grs,f
  5024     04F5                     i1l1669:
  5025     04F5  0867               	movf	___fladd@grs,w
  5026     04F6  1D03               	btfss	3,2
  5027     04F7  2CF9               	goto	u196_21
  5028     04F8  2CFA               	goto	u196_20
  5029     04F9                     u196_21:
  5030     04F9  2D17               	goto	i1l567
  5031     04FA                     u196_20:
  5032     04FA                     i1l1671:
  5033     04FA  3001               	movlw	1
  5034     04FB  07D4               	addwf	___fladd@b,f
  5035     04FC  3000               	movlw	0
  5036     04FD  1803               	skipnc
  5037     04FE  3001               	movlw	1
  5038     04FF  07D5               	addwf	___fladd@b+1,f
  5039     0500  3000               	movlw	0
  5040     0501  1803               	skipnc
  5041     0502  3001               	movlw	1
  5042     0503  07D6               	addwf	___fladd@b+2,f
  5043     0504  3000               	movlw	0
  5044     0505  1803               	skipnc
  5045     0506  3001               	movlw	1
  5046     0507  07D7               	addwf	___fladd@b+3,f
  5047     0508  2D17               	goto	i1l567
  5048     0509                     i1l1673:
  5049     0509  0858               	movf	___fladd@a,w
  5050     050A  02D4               	subwf	___fladd@b,f
  5051     050B  0859               	movf	___fladd@a+1,w
  5052     050C  1C03               	skipc
  5053     050D  0F59               	incfsz	___fladd@a+1,w
  5054     050E  02D5               	subwf	___fladd@b+1,f
  5055     050F  085A               	movf	___fladd@a+2,w
  5056     0510  1C03               	skipc
  5057     0511  0F5A               	incfsz	___fladd@a+2,w
  5058     0512  02D6               	subwf	___fladd@b+2,f
  5059     0513  085B               	movf	___fladd@a+3,w
  5060     0514  1C03               	skipc
  5061     0515  0F5B               	incfsz	___fladd@a+3,w
  5062     0516  02D7               	subwf	___fladd@b+3,f
  5063     0517                     i1l567:
  5064     0517  0857               	movf	___fladd@b+3,w
  5065     0518  0456               	iorwf	___fladd@b+2,w
  5066     0519  0455               	iorwf	___fladd@b+1,w
  5067     051A  0454               	iorwf	___fladd@b,w
  5068     051B  1D03               	skipz
  5069     051C  2D1E               	goto	u197_21
  5070     051D  2D1F               	goto	u197_20
  5071     051E                     u197_21:
  5072     051E  2D4B               	goto	i1l1695
  5073     051F                     u197_20:
  5074     051F                     i1l1675:
  5075     051F  0867               	movf	___fladd@grs,w
  5076     0520  1D03               	btfss	3,2
  5077     0521  2D23               	goto	u198_21
  5078     0522  2D24               	goto	u198_20
  5079     0523                     u198_21:
  5080     0523  2D4B               	goto	i1l1695
  5081     0524                     u198_20:
  5082     0524                     i1l1677:
  5083     0524  3000               	movlw	0
  5084     0525  00D7               	movwf	?___fladd+3
  5085     0526  3000               	movlw	0
  5086     0527  00D6               	movwf	?___fladd+2
  5087     0528  3000               	movlw	0
  5088     0529  00D5               	movwf	?___fladd+1
  5089     052A  3000               	movlw	0
  5090     052B  00D4               	movwf	?___fladd
  5091     052C  2DC7               	goto	i1l559
  5092     052D                     i1l1681:
  5093     052D  3001               	movlw	1
  5094     052E  00DC               	movwf	??___fladd
  5095     052F                     u199_25:
  5096     052F  1003               	clrc
  5097     0530  0DD4               	rlf	___fladd@b,f
  5098     0531  0DD5               	rlf	___fladd@b+1,f
  5099     0532  0DD6               	rlf	___fladd@b+2,f
  5100     0533  0DD7               	rlf	___fladd@b+3,f
  5101     0534  0BDC               	decfsz	??___fladd,f
  5102     0535  2D2F               	goto	u199_25
  5103     0536                     i1l1683:
  5104     0536  1FE7               	btfss	___fladd@grs,7
  5105     0537  2D39               	goto	u200_21
  5106     0538  2D3A               	goto	u200_20
  5107     0539                     u200_21:
  5108     0539  2D3B               	goto	i1l571
  5109     053A                     u200_20:
  5110     053A                     i1l1685:
  5111     053A  1454               	bsf	___fladd@b,0
  5112     053B                     i1l571:
  5113     053B  1C67               	btfss	___fladd@grs,0
  5114     053C  2D3E               	goto	u201_21
  5115     053D  2D3F               	goto	u201_20
  5116     053E                     u201_21:
  5117     053E  2D42               	goto	i1l1689
  5118     053F                     u201_20:
  5119     053F                     i1l1687:
  5120     053F  1403               	setc
  5121     0540  0DE7               	rlf	___fladd@grs,f
  5122     0541  2D44               	goto	i1l1691
  5123     0542                     i1l1689:
  5124     0542  1003               	clrc
  5125     0543  0DE7               	rlf	___fladd@grs,f
  5126     0544                     i1l1691:
  5127     0544  0866               	movf	___fladd@bexp,w
  5128     0545  1903               	btfsc	3,2
  5129     0546  2D48               	goto	u202_21
  5130     0547  2D49               	goto	u202_20
  5131     0548                     u202_21:
  5132     0548  2D4B               	goto	i1l1695
  5133     0549                     u202_20:
  5134     0549                     i1l1693:
  5135     0549  3001               	movlw	1
  5136     054A  02E6               	subwf	___fladd@bexp,f
  5137     054B                     i1l1695:
  5138     054B  1FD6               	btfss	___fladd@b+2,7
  5139     054C  2D4E               	goto	u203_21
  5140     054D  2D4F               	goto	u203_20
  5141     054E                     u203_21:
  5142     054E  2D2D               	goto	i1l1681
  5143     054F                     u203_20:
  5144     054F                     i1l1697:
  5145     054F  01E5               	clrf	___fladd@aexp
  5146     0550                     i1l1699:
  5147     0550  1FE7               	btfss	___fladd@grs,7
  5148     0551  2D53               	goto	u204_21
  5149     0552  2D54               	goto	u204_20
  5150     0553                     u204_21:
  5151     0553  2D62               	goto	i1l1707
  5152     0554                     u204_20:
  5153     0554                     i1l1701:
  5154     0554  0867               	movf	___fladd@grs,w
  5155     0555  397F               	andlw	127
  5156     0556  1903               	btfsc	3,2
  5157     0557  2D59               	goto	u205_21
  5158     0558  2D5A               	goto	u205_20
  5159     0559                     u205_21:
  5160     0559  2D5D               	goto	i1l577
  5161     055A                     u205_20:
  5162     055A                     i1l1703:
  5163     055A  01E5               	clrf	___fladd@aexp
  5164     055B  0AE5               	incf	___fladd@aexp,f
  5165     055C  2D62               	goto	i1l1707
  5166     055D                     i1l577:
  5167     055D  1C54               	btfss	___fladd@b,0
  5168     055E  2D60               	goto	u206_21
  5169     055F  2D61               	goto	u206_20
  5170     0560                     u206_21:
  5171     0560  2D62               	goto	i1l1707
  5172     0561                     u206_20:
  5173     0561  2D5A               	goto	i1l1703
  5174     0562                     i1l1707:
  5175     0562  0865               	movf	___fladd@aexp,w
  5176     0563  1903               	btfsc	3,2
  5177     0564  2D66               	goto	u207_21
  5178     0565  2D67               	goto	u207_20
  5179     0566                     u207_21:
  5180     0566  2D9B               	goto	i1l580
  5181     0567                     u207_20:
  5182     0567                     i1l1709:
  5183     0567  3001               	movlw	1
  5184     0568  07D4               	addwf	___fladd@b,f
  5185     0569  3000               	movlw	0
  5186     056A  1803               	skipnc
  5187     056B  3001               	movlw	1
  5188     056C  07D5               	addwf	___fladd@b+1,f
  5189     056D  3000               	movlw	0
  5190     056E  1803               	skipnc
  5191     056F  3001               	movlw	1
  5192     0570  07D6               	addwf	___fladd@b+2,f
  5193     0571  3000               	movlw	0
  5194     0572  1803               	skipnc
  5195     0573  3001               	movlw	1
  5196     0574  07D7               	addwf	___fladd@b+3,f
  5197     0575                     i1l1711:
  5198     0575  1C57               	btfss	___fladd@b+3,0
  5199     0576  2D78               	goto	u208_21
  5200     0577  2D79               	goto	u208_20
  5201     0578                     u208_21:
  5202     0578  2D9B               	goto	i1l580
  5203     0579                     u208_20:
  5204     0579                     i1l1713:
  5205     0579  0854               	movf	___fladd@b,w
  5206     057A  00DC               	movwf	??___fladd
  5207     057B  0855               	movf	___fladd@b+1,w
  5208     057C  00DD               	movwf	??___fladd+1
  5209     057D  0856               	movf	___fladd@b+2,w
  5210     057E  00DE               	movwf	??___fladd+2
  5211     057F  0857               	movf	___fladd@b+3,w
  5212     0580  00DF               	movwf	??___fladd+3
  5213     0581  3001               	movlw	1
  5214     0582  00E0               	movwf	??___fladd+4
  5215     0583                     u209_25:
  5216     0583  0D5F               	rlf	??___fladd+3,w
  5217     0584  0CDF               	rrf	??___fladd+3,f
  5218     0585  0CDE               	rrf	??___fladd+2,f
  5219     0586  0CDD               	rrf	??___fladd+1,f
  5220     0587  0CDC               	rrf	??___fladd,f
  5221     0588                     u209_20:
  5222     0588  0BE0               	decfsz	??___fladd+4,f
  5223     0589  2D83               	goto	u209_25
  5224     058A  085F               	movf	??___fladd+3,w
  5225     058B  00D7               	movwf	___fladd@b+3
  5226     058C  085E               	movf	??___fladd+2,w
  5227     058D  00D6               	movwf	___fladd@b+2
  5228     058E  085D               	movf	??___fladd+1,w
  5229     058F  00D5               	movwf	___fladd@b+1
  5230     0590  085C               	movf	??___fladd,w
  5231     0591  00D4               	movwf	___fladd@b
  5232     0592  0A66               	incf	___fladd@bexp,w
  5233     0593  1903               	btfsc	3,2
  5234     0594  2D96               	goto	u210_21
  5235     0595  2D97               	goto	u210_20
  5236     0596                     u210_21:
  5237     0596  2D9B               	goto	i1l580
  5238     0597                     u210_20:
  5239     0597                     i1l1715:
  5240     0597  3001               	movlw	1
  5241     0598  00DC               	movwf	??___fladd
  5242     0599  085C               	movf	??___fladd,w
  5243     059A  07E6               	addwf	___fladd@bexp,f
  5244     059B                     i1l580:
  5245     059B  0A66               	incf	___fladd@bexp,w
  5246     059C  1903               	btfsc	3,2
  5247     059D  2D9F               	goto	u211_21
  5248     059E  2DA0               	goto	u211_20
  5249     059F                     u211_21:
  5250     059F  2DA5               	goto	i1l1719
  5251     05A0                     u211_20:
  5252     05A0                     i1l1717:
  5253     05A0  0866               	movf	___fladd@bexp,w
  5254     05A1  1D03               	btfss	3,2
  5255     05A2  2DA4               	goto	u212_21
  5256     05A3  2DA5               	goto	u212_20
  5257     05A4                     u212_21:
  5258     05A4  2DB3               	goto	i1l1725
  5259     05A5                     u212_20:
  5260     05A5                     i1l1719:
  5261     05A5  3000               	movlw	0
  5262     05A6  00D7               	movwf	___fladd@b+3
  5263     05A7  3000               	movlw	0
  5264     05A8  00D6               	movwf	___fladd@b+2
  5265     05A9  3000               	movlw	0
  5266     05AA  00D5               	movwf	___fladd@b+1
  5267     05AB  3000               	movlw	0
  5268     05AC  00D4               	movwf	___fladd@b
  5269     05AD                     i1l1721:
  5270     05AD  0866               	movf	___fladd@bexp,w
  5271     05AE  1D03               	btfss	3,2
  5272     05AF  2DB1               	goto	u213_21
  5273     05B0  2DB2               	goto	u213_20
  5274     05B1                     u213_21:
  5275     05B1  2DB3               	goto	i1l1725
  5276     05B2                     u213_20:
  5277     05B2                     i1l1723:
  5278     05B2  01E4               	clrf	___fladd@signs
  5279     05B3                     i1l1725:
  5280     05B3  1C66               	btfss	___fladd@bexp,0
  5281     05B4  2DB6               	goto	u214_21
  5282     05B5  2DB7               	goto	u214_20
  5283     05B6                     u214_21:
  5284     05B6  2DB9               	goto	i1l1729
  5285     05B7                     u214_20:
  5286     05B7                     i1l1727:
  5287     05B7  17D6               	bsf	___fladd@b+2,7
  5288     05B8  2DBD               	goto	i1l588
  5289     05B9                     i1l1729:
  5290     05B9  307F               	movlw	127
  5291     05BA  00DC               	movwf	??___fladd
  5292     05BB  085C               	movf	??___fladd,w
  5293     05BC  05D6               	andwf	___fladd@b+2,f
  5294     05BD                     i1l588:
  5295     05BD  0866               	movf	___fladd@bexp,w
  5296     05BE  00DC               	movwf	??___fladd
  5297     05BF  1003               	clrc
  5298     05C0  0C5C               	rrf	??___fladd,w
  5299     05C1  00D7               	movwf	___fladd@b+3
  5300     05C2                     i1l1731:
  5301     05C2  1FE4               	btfss	___fladd@signs,7
  5302     05C3  2DC5               	goto	u215_21
  5303     05C4  2DC6               	goto	u215_20
  5304     05C5                     u215_21:
  5305     05C5  2DC7               	goto	i1l589
  5306     05C6                     u215_20:
  5307     05C6                     i1l1733:
  5308     05C6  17D7               	bsf	___fladd@b+3,7
  5309     05C7                     i1l589:
  5310     05C7                     i1l559:
  5311     05C7  0008               	return
  5312     05C8                     __end_of___fladd:
  5313                           
  5314                           	psect	text16
  5315     0CA7                     __ptext16:	
  5316 ;; *************** function _PWM_duty *****************
  5317 ;; Defined at:
  5318 ;;		line 48 in file "PWM.c"
  5319 ;; Parameters:    Size  Location     Type
  5320 ;;  canal           1    wreg     unsigned char 
  5321 ;;  duty            2    0[COMMON] unsigned short 
  5322 ;; Auto vars:     Size  Location     Type
  5323 ;;  canal           1    4[COMMON] unsigned char 
  5324 ;; Return value:  Size  Location     Type
  5325 ;;                  1    wreg      void 
  5326 ;; Registers used:
  5327 ;;		wreg, status,2, status,0
  5328 ;; Tracked objects:
  5329 ;;		On entry : 0/0
  5330 ;;		On exit  : 0/0
  5331 ;;		Unchanged: 0/0
  5332 ;; Data sizes:     COMMON   BANK0   BANK1   BANK3   BANK2
  5333 ;;      Params:         2       0       0       0       0
  5334 ;;      Locals:         1       0       0       0       0
  5335 ;;      Temps:          2       0       0       0       0
  5336 ;;      Totals:         5       0       0       0       0
  5337 ;;Total ram usage:        5 bytes
  5338 ;; Hardware stack levels used: 1
  5339 ;; This function calls:
  5340 ;;		Nothing
  5341 ;; This function is called by:
  5342 ;;		_isr
  5343 ;; This function uses a non-reentrant model
  5344 ;;
  5345                           
  5346     0CA7                     _PWM_duty:	
  5347                           ;psect for function _PWM_duty
  5348                           
  5349                           
  5350                           ;incstack = 0
  5351                           ; Regs used in _PWM_duty: [wreg+status,2+status,0]
  5352                           ;PWM_duty@canal stored from wreg
  5353     0CA7  00F4               	movwf	PWM_duty@canal
  5354     0CA8                     i1l2065:
  5355                           
  5356                           ;PWM.c: 48: void PWM_duty(char canal, unsigned short duty);PWM.c: 49: {;PWM.c: 50:      
      +                             if (canal == 1)
  5357     0CA8  0374               	decf	PWM_duty@canal,w
  5358     0CA9  1D03               	btfss	3,2
  5359     0CAA  2CAC               	goto	u296_21
  5360     0CAB  2CAD               	goto	u296_20
  5361     0CAC                     u296_21:
  5362     0CAC  2CC4               	goto	i1l150
  5363     0CAD                     u296_20:
  5364     0CAD                     i1l2067:
  5365                           
  5366                           ;PWM.c: 51:         {;PWM.c: 52:             CCPR1L = duty>>2;
  5367     0CAD  0871               	movf	PWM_duty@duty+1,w
  5368     0CAE  00F3               	movwf	??_PWM_duty+1
  5369     0CAF  0870               	movf	PWM_duty@duty,w
  5370     0CB0  00F2               	movwf	??_PWM_duty
  5371     0CB1  1003               	clrc
  5372     0CB2  0CF3               	rrf	??_PWM_duty+1,f
  5373     0CB3  0CF2               	rrf	??_PWM_duty,f
  5374     0CB4  1003               	clrc
  5375     0CB5  0CF3               	rrf	??_PWM_duty+1,f
  5376     0CB6  0CF2               	rrf	??_PWM_duty,f
  5377     0CB7  0872               	movf	??_PWM_duty,w
  5378     0CB8  1283               	bcf	3,5	;RP0=0, select bank0
  5379     0CB9  1303               	bcf	3,6	;RP1=0, select bank0
  5380     0CBA  0095               	movwf	21	;volatile
  5381                           
  5382                           ;PWM.c: 53:             CCP1CONbits.DC1B = duty & 3;
  5383     0CBB  0870               	movf	PWM_duty@duty,w
  5384     0CBC  3903               	andlw	3
  5385     0CBD  00F2               	movwf	??_PWM_duty
  5386     0CBE  0EF2               	swapf	??_PWM_duty,f
  5387     0CBF  0817               	movf	23,w	;volatile
  5388     0CC0  0672               	xorwf	??_PWM_duty,w
  5389     0CC1  39CF               	andlw	-49
  5390     0CC2  0672               	xorwf	??_PWM_duty,w
  5391     0CC3  0097               	movwf	23	;volatile
  5392     0CC4                     i1l150:	
  5393                           ;PWM.c: 54:         }
  5394                           
  5395                           
  5396                           ;PWM.c: 55:         if (canal == 2)
  5397     0CC4  3002               	movlw	2
  5398     0CC5  0674               	xorwf	PWM_duty@canal,w
  5399     0CC6  1D03               	btfss	3,2
  5400     0CC7  2CC9               	goto	u297_21
  5401     0CC8  2CCA               	goto	u297_20
  5402     0CC9                     u297_21:
  5403     0CC9  2CEB               	goto	i1l152
  5404     0CCA                     u297_20:
  5405     0CCA                     i1l2069:
  5406                           
  5407                           ;PWM.c: 56:         {;PWM.c: 57:             CCPR2L = (uint8_t)(duty>>2);
  5408     0CCA  0871               	movf	PWM_duty@duty+1,w
  5409     0CCB  00F3               	movwf	??_PWM_duty+1
  5410     0CCC  0870               	movf	PWM_duty@duty,w
  5411     0CCD  00F2               	movwf	??_PWM_duty
  5412     0CCE  1003               	clrc
  5413     0CCF  0CF3               	rrf	??_PWM_duty+1,f
  5414     0CD0  0CF2               	rrf	??_PWM_duty,f
  5415     0CD1  1003               	clrc
  5416     0CD2  0CF3               	rrf	??_PWM_duty+1,f
  5417     0CD3  0CF2               	rrf	??_PWM_duty,f
  5418     0CD4  0872               	movf	??_PWM_duty,w
  5419     0CD5  1283               	bcf	3,5	;RP0=0, select bank0
  5420     0CD6  1303               	bcf	3,6	;RP1=0, select bank0
  5421     0CD7  009B               	movwf	27	;volatile
  5422                           
  5423                           ;PWM.c: 58:             CCP2CONbits.DC2B0 = duty & 0b01;
  5424     0CD8  0870               	movf	PWM_duty@duty,w
  5425     0CD9  3901               	andlw	1
  5426     0CDA  00F2               	movwf	??_PWM_duty
  5427     0CDB  0EF2               	swapf	??_PWM_duty,f
  5428     0CDC  081D               	movf	29,w	;volatile
  5429     0CDD  0672               	xorwf	??_PWM_duty,w
  5430     0CDE  39EF               	andlw	-17
  5431     0CDF  0672               	xorwf	??_PWM_duty,w
  5432     0CE0  009D               	movwf	29	;volatile
  5433                           
  5434                           ;PWM.c: 59:             CCP2CONbits.DC2B1 = duty & 0b10;
  5435     0CE1  0870               	movf	PWM_duty@duty,w
  5436     0CE2  3902               	andlw	2
  5437     0CE3  00F2               	movwf	??_PWM_duty
  5438     0CE4  0EF2               	swapf	??_PWM_duty,f
  5439     0CE5  0DF2               	rlf	??_PWM_duty,f
  5440     0CE6  081D               	movf	29,w	;volatile
  5441     0CE7  0672               	xorwf	??_PWM_duty,w
  5442     0CE8  39DF               	andlw	-33
  5443     0CE9  0672               	xorwf	??_PWM_duty,w
  5444     0CEA  009D               	movwf	29	;volatile
  5445     0CEB                     i1l152:
  5446     0CEB  0008               	return
  5447     0CEC                     __end_of_PWM_duty:
  5448     007E                     btemp	set	126	;btemp
  5449     007E                     wtemp0	set	126
  5450                           
  5451                           	psect	idloc
  5452                           
  5453                           ;Config register IDLOC0 @ 0x2000
  5454                           ;	unspecified, using default values
  5455     2000                     	org	8192
  5456     2000  3FFF               	dw	16383
  5457                           
  5458                           ;Config register IDLOC1 @ 0x2001
  5459                           ;	unspecified, using default values
  5460     2001                     	org	8193
  5461     2001  3FFF               	dw	16383
  5462                           
  5463                           ;Config register IDLOC2 @ 0x2002
  5464                           ;	unspecified, using default values
  5465     2002                     	org	8194
  5466     2002  3FFF               	dw	16383
  5467                           
  5468                           ;Config register IDLOC3 @ 0x2003
  5469                           ;	unspecified, using default values
  5470     2003                     	org	8195
  5471     2003  3FFF               	dw	16383
  5472                           
  5473                           	psect	config
  5474                           
  5475                           ;Config register CONFIG1 @ 0x2007
  5476                           ;	Oscillator Selection bits
  5477                           ;	FOSC = INTRC_NOCLKOUT, INTOSCIO oscillator: I/O function on RA6/OSC2/CLKOUT pin, I/O f
      +                          unction on RA7/OSC1/CLKIN
  5478                           ;	Watchdog Timer Enable bit
  5479                           ;	WDTE = OFF, WDT disabled and can be enabled by SWDTEN bit of the WDTCON register
  5480                           ;	Power-up Timer Enable bit
  5481                           ;	PWRTE = OFF, PWRT disabled
  5482                           ;	RE3/MCLR pin function select bit
  5483                           ;	MCLRE = OFF, RE3/MCLR pin function is digital input, MCLR internally tied to VDD
  5484                           ;	Code Protection bit
  5485                           ;	CP = OFF, Program memory code protection is disabled
  5486                           ;	Data Code Protection bit
  5487                           ;	CPD = OFF, Data memory code protection is disabled
  5488                           ;	Brown Out Reset Selection bits
  5489                           ;	BOREN = OFF, BOR disabled
  5490                           ;	Internal External Switchover bit
  5491                           ;	IESO = OFF, Internal/External Switchover mode is disabled
  5492                           ;	Fail-Safe Clock Monitor Enabled bit
  5493                           ;	FCMEN = OFF, Fail-Safe Clock Monitor is disabled
  5494                           ;	Low Voltage Programming Enable bit
  5495                           ;	LVP = OFF, RB3 pin has digital I/O, HV on MCLR must be used for programming
  5496                           ;	In-Circuit Debugger Mode bit
  5497                           ;	DEBUG = 0x1, unprogramme  5498     2007                     	org	8199
  5499     2007  20D4               	dw	8404
  5500                           
  5501                           ;Config register CONFIG2 @ 0x2008
  5502                           ;	Brown-out Reset Selection bit
  5503                           ;	BOR4V = BOR40V, Brown-out Reset set to 4.0V
  5504                           ;	Flash Program Memory Self Write Enable bits
  5505                           ;	WRT = OFF, Write protection off
  5506     2008                     	org	8200
  5507     2008  3FFF               	dw	16383

Data Sizes:
    Strings     0
    Constant    0
    Data        1
    BSS         12
    Persistent  0
    Stack       0

Auto Spaces:
    Space          Size  Autos    Used
    COMMON           14     14      14
    BANK0            80     80      80
    BANK1            80     19      32
    BANK3            96      0       0
    BANK2            96      0       0

Pointer List with Targets:

    None.

Critical Paths under _main in COMMON

    None.

Critical Paths under _isr in COMMON

    _map->___xxtofl
    ___fltol->___xxtofl
    ___flmul->___xxtofl
    ___fldiv->___xxtofl
    ___fladd->___xxtofl

Critical Paths under _main in BANK0

    None.

Critical Paths under _isr in BANK0

    _map->___fltol
    ___fltol->___fladd
    ___flmul->___fldiv
    ___fladd->___flmul

Critical Paths under _main in BANK1

    _ADC_Change->_ADC_Select

Critical Paths under _isr in BANK1

    _isr->_map
    _map->___fltol

Critical Paths under _main in BANK3

    None.

Critical Paths under _isr in BANK3

    None.

Critical Paths under _main in BANK2

    None.

Critical Paths under _isr in BANK2

    None.

Call Graph Tables:

 ---------------------------------------------------------------------------------
 (Depth) Function   	        Calls       Base Space   Used Autos Params    Refs
 ---------------------------------------------------------------------------------
 (0) _main                                                 0     0      0     502
                         _ADC_Change
                            _ADC_Int
                         _Int_Enable
                         _PWM_config
                              _Setup
                        _TMR0_Config
 ---------------------------------------------------------------------------------
 (1) _TMR0_Config                                          0     0      0       0
 ---------------------------------------------------------------------------------
 (1) _Setup                                                0     0      0       0
 ---------------------------------------------------------------------------------
 (1) _PWM_config                                           3     1      2     164
                                             14 BANK1      3     1      2
 ---------------------------------------------------------------------------------
 (1) _Int_Enable                                           0     0      0       0
 ---------------------------------------------------------------------------------
 (1) _ADC_Int                                              1     1      0      22
                                             14 BANK1      1     1      0
 ---------------------------------------------------------------------------------
 (1) _ADC_Change                                           0     0      0     316
                         _ADC_Select
 ---------------------------------------------------------------------------------
 (2) _ADC_Select                                           5     3      2     316
                                             14 BANK1      5     3      2
 ---------------------------------------------------------------------------------
 Estimated maximum stack depth 2
 ---------------------------------------------------------------------------------
 (Depth) Function   	        Calls       Base Space   Used Autos Params    Refs
 ---------------------------------------------------------------------------------
 (3) _isr                                                  5     5      0    7951
                                              9 BANK1      5     5      0
                           _PWM_duty
                                _map
 ---------------------------------------------------------------------------------
 (4) _map                                                  7     1      6    7645
                                              2 BANK1      7     1      6
                            ___fladd
                            ___fldiv
                            ___flmul
                            ___fltol
                           ___xxtofl
 ---------------------------------------------------------------------------------
 (5) ___xxtofl                                            14    10      4     626
                                              0 COMMON    14    10      4
 ---------------------------------------------------------------------------------
 (5) ___fltol                                             10     6      4     305
                                             72 BANK0      8     4      4
                                              0 BANK1      2     2      0
                            ___fladd (ARG)
                            ___fldiv (ARG)
                            ___flmul (ARG)
                           ___xxtofl (ARG)
 ---------------------------------------------------------------------------------
 (5) ___flmul                                             26    18      8    2417
                                             26 BANK0     26    18      8
                          __Umul8_16
                            ___fldiv (ARG)
                           ___xxtofl (ARG)
 ---------------------------------------------------------------------------------
 (6) __Umul8_16                                            9     7      2     799
                                              0 COMMON     9     7      2
 ---------------------------------------------------------------------------------
 (5) ___fldiv                                             26    18      8    1273
                                              0 BANK0     26    18      8
                           ___xxtofl (ARG)
 ---------------------------------------------------------------------------------
 (5) ___fladd                                             20    12      8    2262
                                             52 BANK0     20    12      8
                            ___fldiv (ARG)
                            ___flmul (ARG)
                           ___xxtofl (ARG)
 ---------------------------------------------------------------------------------
 (4) _PWM_duty                                             5     3      2     306
                                              0 COMMON     5     3      2
 ---------------------------------------------------------------------------------
 Estimated maximum stack depth 6
 ---------------------------------------------------------------------------------

 Call Graph Graphs:

 _main (ROOT)
   _ADC_Change
     _ADC_Select
   _ADC_Int
   _Int_Enable
   _PWM_config
   _Setup
   _TMR0_Config

 _isr (ROOT)
   _PWM_duty
   _map
     ___fladd
       ___fldiv (ARG)
         ___xxtofl (ARG)
       ___flmul (ARG)
         __Umul8_16
         ___fldiv (ARG)
         ___xxtofl (ARG)
       ___xxtofl (ARG)
     ___fldiv
     ___flmul
     ___fltol
       ___fladd (ARG)
       ___fldiv (ARG)
       ___flmul (ARG)
       ___xxtofl (ARG)
     ___xxtofl

 Address spaces:
Name               Size   Autos  Total    Cost      Usage
BANK3               60      0       0       9        0.0%
BITBANK3            60      0       0       8        0.0%
SFR3                 0      0       0       4        0.0%
BITSFR3              0      0       0       4        0.0%
BANK2               60      0       0      11        0.0%
BITBANK2            60      0       0      10        0.0%
SFR2                 0      0       0       5        0.0%
BITSFR2              0      0       0       5        0.0%
BANK1               50     13      20       7       40.0%
BITBANK1            50      0       0       6        0.0%
SFR1                 0      0       0       2        0.0%
BITSFR1              0      0       0       2        0.0%
BANK0               50     50      50       5      100.0%
BITBANK0            50      0       0       4        0.0%
SFR0                 0      0       0       1        0.0%
BITSFR0              0      0       0       1        0.0%
COMMON               E      E       E       1      100.0%
BITCOMMON            E      0       0       0        0.0%
CODE                 0      0       0       0        0.0%
DATA                 0      0      7E      12        0.0%
ABS                  0      0      7E       3        0.0%
NULL                 0      0       0       0        0.0%
STACK                0      0       0       2        0.0%
EEDATA             100      0       0       0        0.0%


Microchip Technology PIC Macro Assembler V2.40 build 20220703182018 
Symbol Table                                                                                   Sun Apr 09 20:41:29 2023

           ___fldiv@aexp 0039             ___fldiv@bexp 0038             ___fldiv@sign 0031  
                     l91 0BE1                       l85 0C11                       l95 0CA6  
                     l88 0BD4                       l98 0C9F      __Umul8_16@word_mpld 0076  
                    l102 0C9F                      l104 0CA5                      l144 07F3  
                    l161 0BF2                      l146 07F7                      l147 07F8  
                    l164 0D52                      _GIE 005F                      _PR2 0092  
                    _map 0DE1               _PWM_config 079B                      _isr 0F47  
        __end_of_ADC_Int 0BF3             ___flmul@aexp 004C             ___flmul@bexp 004D  
           ___flmul@sign 0047             ___flmul@temp 0052             ___flmul@prod 004E  
           ___fltol@exp1 00A1                     l2101 0C95                     l2111 07AC  
                   l2103 079E                     l2121 07D5                     l2105 07A3  
                   l2113 07AF                     l2123 07DC                     l2107 07A6  
                   l2115 07C1                     l2141 0BF1                     l2125 07E2  
                   l2117 07C6                     l2109 07A9                     l1503 0CEC  
                   l2135 0BE5                     l2127 07EE                     l2119 07CF  
                   l2137 0BE9                     l2129 07F2                     l2073 0BF3  
                   l2081 0BD5                     l2091 0C70                     l2139 0BF0  
                   l2219 07B6                     l2075 0BF7                     l2083 0BDD  
                   l2093 0C77                     l2085 0C69                     l2077 0BF8  
                   l2095 0C80                     l2079 0BCA                     l2191 0C48  
                   l2097 0C85                     l2193 0C54                     l2185 0C39  
                   l2099 0C8F                     l2195 0C5A                     l2187 0C3E  
                   l2197 0C5F                     l2189 0C43                     _ADC1 00BB  
                   _ADC2 00B9                     _ADC3 00B7                     ?_map 00A2  
                   _ADIE 0466                     _ADIF 0066                     ?_isr 0070  
                   _T0IE 005D                     _T0IF 005A                     u3000 0C85  
                   u3001 0C84                     u3010 0C95                     u3011 0C94  
                   u3020 0CA5                     u3021 0CA4                     u3030 07C6  
                   u3031 07C5                     u3040 07D5                     u3041 07D4  
                   u3050 07E2                     u3051 07E1                     u3060 07F7  
                   u3061 07F6                     _PEIE 005E                     u2980 0C6F  
                   u2981 0C6E                     u2990 0C77                     u2991 0C76  
                   i1l80 0FEB                     i1l81 0FEE                     i1l82 0FF5  
            _Bandera_ADC 00BE                     _TMR0 0001                     _main 0C39  
                   map@x 00A8                     btemp 007E                     start 0010  
        ___fldiv@new_exp 0032                    ??_map 007E                    ??_isr 00A9  
     ADC_Int@ADFM_Select 00AE            ___fltol@sign1 00A0          __end_of___fladd 05C8  
                  ?_main 0070          __end_of___fldiv 079B          __end_of___flmul 0370  
        __end_of___fltol 0DE1                    _ANSEL 0188                    i1l150 0CC4  
                  i1l152 0CEB                    i1l167 0E8E                    i1l602 061E  
                  i1l604 079A                    i1l700 0F1C                    i1l550 044E  
                  i1l446 0DC9                    i1l439 0DE0                    i1l552 0427  
                  i1l624 0782                    i1l449 0DE0                    i1l546 03CB  
                  i1l626 0790                    i1l618 0710                    i1l642 036F  
                  i1l571 053B                    i1l580 059B                    i1l661 0C26  
                  i1l654 0363                    i1l567 0517                    i1l559 05C7  
                  i1l663 0C38                    i1l648 02DF                    i1l577 055D  
                  i1l588 05BD                    i1l692 0EF4                    i1l589 05C7  
                  i1l686 0EB1                    i1l688 0F46                    i1l699 0F10  
                  _PORTA 0005                    _PORTB 0006                    _PORTC 0007  
                  _PORTD 0008                    _TRISA 0085                    _TRISB 0086  
                  _TRISC 0087                    _TRISD 0088        PWM_config@periodo 00AE  
                  _Setup 0BF3                    map@x0 00A2                    map@x1 00A3  
                  map@y0 00A4                    map@y1 00A6                    pclath 000A  
       __end_of_PWM_duty 0CEC                    status 0003                    wtemp0 007E  
             _Int_Enable 0BCA          __initialization 0013             __end_of_main 0C69  
              ??_ADC_Int 00AE                   ??_main 00B3              ?_PWM_config 00AE  
                 ?_Setup 0070                   _ADCON0 001F                   _ADRESH 001E  
                 _CCPR1L 0015                   _CCPR2L 001B                   _ANSELH 0189  
           ??_ADC_Change 00B3                   i1l2001 0341                   i1l2011 035E  
                 i1l2003 034B                   i1l2013 0367                   i1l2005 034D  
                 i1l2021 0E99                   i1l2007 0359                   i1l2031 0EC5  
                 i1l2023 0EA9                   i1l2009 035D                   i1l2041 0EFB  
                 i1l2033 0ED2                   i1l2025 0EB9                   i1l2017 0E90  
                 i1l2051 0F34                   i1l2043 0F06                   i1l2035 0ED9  
                 i1l2019 0E95                   i1l2053 0F39                   i1l2045 0F0A  
                 i1l2037 0EDD                   i1l2029 0EC2                   i1l2061 0DE4  
                 i1l1511 0D6B                   i1l2055 0F3D                   i1l2047 0F14  
                 i1l2039 0EEB                   i1l2151 0F76                   i1l2143 0F47  
                 u200_20 053A                   i1l2065 0CA8                   u200_21 0539  
                 i1l1601 03E5                   i1l1521 0D95                   i1l1513 0D82  
                 i1l1505 0D53                   i1l2057 0F3E                   i1l2049 0F1E  
                 i1l2161 0FAC                   i1l2153 0F80                   i1l2145 0F4D  
                 i1l2067 0CAD                   i1l1611 03EF                   i1l1603 03E7  
                 i1l1515 0D85                   i1l1507 0D60                   i1l2163 0FB6  
                 i1l2171 0FCD                   i1l2147 0F54                   i1l2155 0F85  
                 i1l2069 0CCA                   i1l1701 0554                   i1l1621 03F8  
                 i1l1613 03F1                   i1l1605 03E9                   i1l1541 0370  
                 i1l1517 0D8D                   i1l2181 0FEF                   i1l2157 0F8A  
                 i1l2165 0FBB                   i1l2149 0F5F                   i1l2173 0FD0  
                 i1l1711 0575                   i1l1703 055A                   i1l1631 0438  
                 i1l1623 040F                   i1l1615 03F3                   i1l1607 03EB  
                 i1l1551 0383                   i1l1543 0375                   i1l1535 0DBA  
                 i1l1527 0D9D                   i1l1519 0D91                   i1l2175 0FD4  
                 i1l2167 0FC1                   i1l2159 0F95                   u201_20 053F  
                 i1l1721 05AD                   i1l1713 0579                   u201_21 053E  
                 i1l1641 0457                   i1l1633 0439                   i1l1625 042B  
                 i1l1617 03F5                   i1l1609 03ED                   i1l1561 039B  
                 i1l1553 0388                   i1l1545 0379                   i1l1801 067E  
                 i1l1537 0DCE                   i1l1529 0DB3                   i1l2177 0FDA  
                 i1l2169 0FCC                   i1l1731 05C2                   i1l1723 05B2  
                 i1l1715 0597                   i1l1707 0562                   i1l1651 047F  
                 i1l1635 0442                   i1l1627 0432                   i1l1619 03F7  
                 i1l1571 03AD                   i1l1563 039E                   i1l1555 0390  
                 i1l1547 037D                   i1l1811 06B0                   i1l1803 0690  
                 i1l1491 0C15                   i1l1539 0DD3                   i1l2179 0FE7  
                 i1l1733 05C6                   i1l1725 05B3                   i1l1717 05A0  
                 i1l1709 0567                   i1l1661 0496                   i1l1653 0486  
                 i1l1645 0460                   i1l1629 0434                   i1l1637 0446  
                 i1l1581 03C1                   i1l1573 03AE                   i1l1565 03A4  
                 i1l1557 0391                   i1l1549 037E                   i1l1821 06D1  
                 i1l1813 06B1                   i1l1805 0694                   i1l1741 05D5  
                 i1l1493 0C1C                   i1l1901 0062                   i1l1727 05B7  
                 i1l1719 05A5                   i1l1671 04FA                   i1l1655 0488  
                 i1l1647 0477                   i1l1639 0452                   i1l1663 049B  
                 i1l1591 03DB                   i1l1575 03B3                   i1l1583 03C3  
                 i1l1567 03A5                   i1l1559 0393                   i1l1831 06EA  
                 i1l1823 06D3                   i1l1815 06BF                   i1l1807 0695  
                 i1l1751 05E9                   i1l1743 05D6                   i1l1735 05C8  
                 i1l1495 0C20                   i1l1911 0077                   i1l1903 0063  
                 u210_20 0597                   u202_20 0549                   i1l1729 05B9  
                 u210_21 0596                   u202_21 0548                   i1l1681 052D  
                 i1l1665 04B1                   i1l1673 0509                   i1l1657 048C  
                 i1l1649 047B                   i1l1593 03DD                   i1l1585 03D1  
                 i1l1577 03B8                   i1l1569 03A9                   i1l1841 070D  
                 i1l1825 06DC                   i1l1833 06F0                   i1l1809 069E  
                 i1l1817 06C3                   i1l1761 0600                   i1l1745 05DB  
                 i1l1753 05EB                   i1l1737 05CD                   i1l1497 0C2F  
                 i1l1489 0C13                   i1l1921 0092                   i1l1913 007F  
                 i1l1905 0068                   i1l1691 0544                   i1l1683 0536  
                 i1l1675 051F                   i1l1667 04EF                   i1l1659 048D  
                 i1l1595 03DF                   i1l1587 03D5                   i1l1579 03C0  
                 i1l1851 072C                   i1l1835 06F4                   i1l1827 06E0  
                 i1l1819 06C9                   i1l1771 0614                   i1l1763 0601  
                 i1l1755 05F3                   i1l1747 05E0                   i1l1739 05D1  
                 i1l1499 0C34                   i1l1931 010E                   i1l1923 00A0  
                 i1l1915 0084                   i1l1907 006D                   i1l1693 0549  
                 i1l1685 053A                   i1l1677 0524                   i1l1669 04F5  
                 i1l1597 03E1                   i1l1589 03D9                   i1l1861 0775  
                 i1l1853 0745                   i1l1845 0715                   i1l1837 06F5  
                 i1l1829 06E1                   i1l1765 0606                   i1l1773 0616  
                 i1l1757 05F8                   i1l1749 05E8                   i1l1941 017A  
                 i1l1933 012A                   i1l1925 00AD                   i1l1917 0089  
                 i1l1909 0075                   i1l1687 053F                   i1l1695 054B  
                 i1l1599 03E3                   i1l1871 078C                   i1l1863 0779  
                 i1l1847 071A                   i1l1855 074B                   i1l1839 06F9  
                 i1l1791 065F                   i1l1775 0626                   i1l1783 063F  
                 i1l1767 060B                   i1l1759 05FC                   i1l1951 0204  
                 i1l1943 0188                   i1l1935 0146                   i1l1927 00C8  
                 u211_20 05A0                   u203_20 054F                   u211_21 059F  
                 u203_21 054E                   i1l1689 0542                   i1l1697 054F  
                 i1l1865 0781                   i1l1857 0758                   i1l1849 0728  
                 i1l1793 0667                   i1l1785 0644                   i1l1777 0632  
                 i1l1769 0613                   i1l1961 0294                   i1l1953 0212  
                 i1l1945 01A5                   i1l1937 014F                   i1l1929 00E4  
                 i1l1881 0034                   i1l1699 0550                   i1l1867 0786  
                 i1l1859 0766                   i1l1795 066F                   i1l1779 0636  
                 i1l1971 02B9                   i1l1963 02A2                   i1l1955 023D  
                 i1l1947 01BC                   i1l1939 015D                   i1l1891 004B  
                 i1l1883 0038                   i1l1869 078A                   i1l1797 0677  
                 i1l1789 064D                   i1l1981 02DC                   i1l1965 02AB  
                 i1l1973 02BF                   i1l1957 0263                   i1l1949 01D9  
                 i1l1893 004D                   i1l1885 0039                   i1l1877 002B  
                 i1l1799 0679                   i1l1991 02FB                   i1l1975 02C3  
                 i1l1967 02AF                   i1l1959 028B                   i1l1895 0055  
                 i1l1887 003E                   i1l1879 0030                   u212_20 05A5  
                 u204_20 0554                   u220_20 0606                   u212_21 05A4  
                 u204_21 0553                   u220_21 0605                   i1l1993 0314  
                 i1l1985 02E4                   i1l1977 02C4                   i1l1969 02B0  
                 i1l1897 005A                   i1l1889 0043                   i1l1987 02E9  
                 i1l1995 031A                   i1l1979 02C8                   i1l1899 005E  
                 i1l1997 0327                   i1l1989 02F7                   i1l1999 0332  
                 u213_20 05B2                   u205_20 055A                   u221_20 060B  
                 u213_21 05B1                   u205_21 0559                   u221_21 060A  
                 u214_20 05B7                   u206_20 0561                   u230_20 06C9  
                 u222_20 0626                   u310_20 0FC1                   u214_21 05B6  
                 u206_21 0560                   u230_21 06C8                   u222_21 0625  
                 u310_21 0FC0                   u215_20 05C6                   u207_20 0567  
                 u231_20 06D1                   u223_20 0644                   u311_20 0FD4  
                 u215_21 05C5                   u207_21 0566                   u231_21 06D0  
                 u223_21 0643                   u311_21 0FD3                   u208_20 0579  
                 u240_20 072C                   u224_20 067E                   u216_20 05D5  
                 u160_20 0D60                   u312_20 0FE7                   u208_21 0578  
                 u240_21 072B                   u224_21 067D                   u216_21 05D4  
                 u160_21 0D5F                   u312_21 0FE6                   u232_25 06D5  
                 u312_25 0FE3                   u209_20 0588                   u241_20 073B  
                 u233_20 06E0                   u217_20 05DB                   u161_20 0D7B  
                 u233_21 06DF                   u217_21 05DA                   u209_25 0583  
                 u241_25 0736                   u225_25 0680                   u161_25 0D76  
                 u170_20 037D                   u242_20 0758                   u218_20 05E0  
                 u250_20 006D                   u162_20 0D95                   u170_21 037C  
                 u242_21 0757                   u218_21 05DF                   u250_21 006C  
                 u162_21 0D94                   u242_25 0754                   u234_25 06E3  
                 u226_25 0689                   u171_20 0383                   u243_20 0775  
                 u235_20 06F4                   u227_20 0694                   u219_20 0600  
                 u251_20 0084                   u163_20 0D9C                   u307_20 0F4D  
                 u171_21 0382                   u243_21 0774                   u235_21 06F3  
                 u227_21 0693                   u219_21 05FF                   u251_21 0083  
                 u163_21 0D9B                   u307_21 0F4C                   u243_25 0771  
                 u180_20 041A                   u172_20 0388                   u244_20 078A  
                 u236_20 06F9                   u252_20 0089                   u308_20 0F54  
                 u180_21 0418                   u172_21 0387                   u244_21 0789  
                 u236_21 06F8                   u252_21 0088                   u308_21 0F53  
                 u228_25 0697                   u260_25 01A7                   u164_25 0D9E  
                 u181_20 041B                   u173_20 03A4                   u237_20 070D  
                 u229_20 06B0                   u157_20 0C20                   u245_20 0038  
                 u165_20 0DB2                   u309_20 0F8A                   u173_21 03A3  
                 u237_21 070C                   u229_21 06AF                   u157_21 0C1F  
                 u261_21 01CB                   u253_21 00D6                   u245_21 0037  
                 u165_21 0DB1                   u309_21 0F89                   u261_22 01D2  
                 u253_22 00DD                   u261_23 01D9                   u253_23 00E4  
                 u229_25 06AC                   u190_20 047F                   u182_20 042B  
                 u174_20 03AD                   u238_20 0714                   u270_20 02AF  
                 u246_20 003E                   u166_20 0DB9                   u190_21 047E  
                 u182_21 042A                   u174_21 03AC                   u238_21 0713  
                 u270_21 02AE                   u262_21 01F6                   u254_21 00F2  
                 u246_21 003D                   u166_21 0DB8                   u262_22 01FD  
                 u254_22 00F9                   u262_23 0204                   u254_23 0100  
                 u158_25 0C27                   u191_20 048C                   u183_20 0438  
                 u175_20 03B3                   u239_20 071A                   u159_20 0C34  
                 u247_20 0043                   u191_21 048B                   u183_21 0437  
                 u175_21 03B2                   u239_21 0719                   u159_21 0C33  
                 u263_21 0221                   u255_21 011C                   u247_21 0042  
                 u263_22 0228                   u255_22 0123                   u263_23 022F  
                 u255_23 012A                   u271_25 02B2                   u167_25 0DBE  
                 u176_20 03B8                   u280_20 0341                   u272_20 02C3  
                 u264_20 0249                   u248_20 0062                   u168_20 0DCE  
                 u176_21 03B7                   u280_21 0340                   u272_21 02C2  
                 u256_21 0138                   u248_21 0061                   u168_21 0DCD  
                 u256_22 013F                   u256_23 0146                   u192_25 048F  
                 u184_25 043B                   u280_25 033D                   u264_25 0244  
                 u193_20 04B1                   u185_20 044E                   u177_20 03D1  
                 u281_20 035D                   u273_20 02C8                   u249_20 0068  
                 u169_20 0DD3                   u193_21 04B0                   u185_21 044D  
                 u177_21 03D0                   u281_21 035C                   u273_21 02C7  
                 u265_21 0255                   u249_21 0067                   u169_21 0DD2  
                 u265_22 025C                   u193_23 04AD                   u265_23 0263  
                 u257_25 0148                   u186_20 0452                   u178_20 03D5  
                 u274_20 02DC                   u266_20 0271                   u290_20 0F0A  
                 u282_20 0E95                   u194_21 04C8                   u186_21 0451  
                 u178_21 03D4                   u274_21 02DB                   u258_21 016C  
                 u290_21 0F09                   u282_21 0E94                   u194_22 04C9  
                 u258_22 0173                   u194_23 04CE                   u258_23 017A  
                 u194_24 04CF                   u194_25 04D4                   u266_25 026C  
                 u194_26 04D5                   u195_20 04DC                   u187_20 0457  
                 u179_20 040F                   u275_20 02E3                   u291_20 0F10  
                 u283_20 0E99                   u195_21 04DD                   u187_21 0456  
                 u179_21 040E                   u275_21 02E2                   u267_21 027D  
                 u259_21 0197                   u291_21 0F0F                   u283_21 0E98  
                 u195_22 04E2                   u267_22 0284                   u259_22 019E  
                 u195_23 04E3                   u267_23 028B                   u259_23 01A5  
                 u179_25 040B                   u196_20 04FA                   u276_20 02E9  
                 u292_20 0F14                   u284_20 0EB9                   u196_21 04F9  
                 u188_21 0469                   u276_21 02E8                   u292_21 0F13  
                 u284_21 0EB8                   u188_22 0470                   u188_23 0477  
                 u268_25 028D                   u197_20 051F                   u189_20 047B  
                 u277_20 02FB                   u293_20 0F29                   u197_21 051E  
                 u189_21 047A                   u277_21 02FA                   u269_25 02A4  
                 u293_25 0F24                   u285_25 0ECA                   u198_20 0524  
                 u278_20 030A                   u294_20 0F39                   u286_20 0ED8  
                 u198_21 0523                   u294_21 0F38                   u286_21 0ED7  
                 u278_25 0305                   u279_20 0327                   u295_20 0F3D  
                 u279_21 0326                   u295_21 0F3C                   u199_25 052F  
                 u279_25 0323                   u287_25 0EEC                   u296_20 0CAD  
                 u288_20 0EFA                   u296_21 0CAC                   u288_21 0EF9  
                 u297_20 0CCA                   u297_21 0CC9                   u289_25 0EFF  
           ??_ADC_Select 00B0         __end_of___xxtofl 0F47             ?_TMR0_Config 0070  
             _Servo1_Val 00B5               _Servo2_Val 00B3                ??___fladd 005C  
              ??___fldiv 0028                ??___flmul 0042                ??___fltol 006C  
     __end_of_ADC_Change 0CA7       __end_of_ADC_Select 0D53                   saved_w 007E  
           ___xxtofl@arg 007A             ___xxtofl@exp 0079             ___xxtofl@val 0070  
__end_of__initialization 0027               ___fltol@f1 0068              ?_Int_Enable 0070  
         __pcstackCOMMON 0070            __end_of_Setup 0C12             __pidataBANK1 07F9  
              ?_PWM_duty 0070           _OPTION_REGbits 0081                  ??_Setup 00AE  
             __pbssBANK1 00B3        __end_of__Umul8_16 0C39               __pmaintext 0C39  
             __pintentry 0004                  _CCP1CON 0017                  _CCP2CON 001D  
                _ADC_Int 0BE2               ??_PWM_duty 0072                ?___xxtofl 0070  
           PWM_duty@duty 0070                  ___fladd 0370                  ___fldiv 05C8  
                ___flmul 002B                  ___fltol 0D53                  __ptext1 0BD5  
                __ptext2 0BF3                  __ptext3 079B                  __ptext4 0BCA  
                __ptext5 0BE2                  __ptext6 0C69                  __ptext7 0CEC  
                __ptext8 0F47                  __ptext9 0DE1             _Contador_PWM 00BD  
           ??_PWM_config 00B0                _T2CONbits 0012               ??___xxtofl 0074  
   end_of_initialization 0027       __end_of_PWM_config 07F9                _PORTCbits 0007  
            ___fladd@grs 0067            ___xxtofl@sign 0078              ___fldiv@grs 0034  
            ___fldiv@rem 002D              ___flmul@grs 0048              _CCP1CONbits 0017  
            _CCP2CONbits 001D             ??_Int_Enable 00AE      start_initialization 0013  
            __end_of_map 0E8F              __end_of_isr 1000       __end_of_Int_Enable 0BD5  
              __Umul8_16 0C12              __pdataBANK1 00BF                 ?_ADC_Int 0070  
              ___fladd@a 0058                ___fladd@b 0054                ___fldiv@a 0020  
              ___fldiv@b 0024                ___flmul@a 003E                ___flmul@b 003A  
              ___latbits 0002            __pcstackBANK0 0020            __pcstackBANK1 00A0  
      ADC_Select@channel 00AE                 ?___fladd 0054                 ?___fldiv 0020  
               ?___flmul 003A                 ?___fltol 0068               ?__Umul8_16 0070  
      interrupt_function 0004            ??_TMR0_Config 00AE                 _PIR1bits 000C  
          PWM_duty@canal 0074                 _TMR0_Pre 00BF               _ADCON0bits 001F  
             _ADCON1bits 009F                 _PWM_duty 0CA7          PWM_config@canal 00B0  
             _ADC_Change 0C69               _ADC_Select 0CEC              ??__Umul8_16 0072  
    __end_of_TMR0_Config 0BE2                 ___xxtofl 0E8F                 __ptext10 0E8F  
               __ptext11 0D53                 __ptext12 002B                 __ptext13 0C12  
               __ptext14 05C8                 __ptext15 0370                 __ptext16 0CA7  
            ?_ADC_Change 0070                 intlevel1 0000              ?_ADC_Select 00AE  
            _TMR0_Config 0BD5   __Umul8_16@multiplicand 0070            ___fladd@signs 0064  
           ___fladd@aexp 0065             ___fladd@bexp 0066     __Umul8_16@multiplier 0078  
      __Umul8_16@product 0074  
